(dp1
V\u0abe\u0ab8
p2
I194
sV\u0abe\u0ab9
p3
I394
sV\u0aa5\u0aaf
p4
I608
sV\u0a9f\u0ac0 
p5
I812
sV\u0ac0\u0aa8\u0abe
p6
I659
sV\u0a87
I147
sV\u0abe\u0ab0
p7
I45
sV\u0abe\u0ab2
p8
I265
sV\u0abe\u0ab3
p9
I323
sV\u0abe\u0ab5
p10
I124
sV\u0abe\u0ab6
p11
I768
sV\u0abe\u0ab7
p12
I791
sV\u0abe\u0aa8
p13
I63
sV\u0abe\u0aaa
p14
I412
sV\u0aa5\u0abe
p15
I226
sV\u0abe\u0aac
p16
I780
sV \u0a8f 
p17
I833
sV\u0a97
I34
sV\u0abe\u0aaf
p18
I119
sV\u0aa5\u0ab5
p19
I778
sV\u0abe\u0aa1
p20
I573
sV \u0a8f\u0a95
p21
I262
sV\u0abe\u0aa4
p22
I165
sV\u0abe\u0aa5
p23
I257
sV\u0abe\u0aa6
p24
I287
sV\u0abf\u0aa4\u0acd
p25
I853
sV 
I0
sV\u0abe\u0a9c
p26
I260
sV\u0aa7
I67
sV\u0abe\u0a9f
p27
I207
sV\u0abe\u0a93
p28
I399
sV\u0abe\u0a95
p29
I397
sV\u0abe\u0a96
p30
I754
sV\u0abe\u0a97
p31
I325
sV\u0a86 
p32
I189
sV\u0acd\u0aa1 
p33
I730
sV\u0ac1\u0ab2
p34
I722
sV\u0ab7
I108
sV\u0ab0\u0aa6
p35
I949
sV\u0abe\u0a82
p36
I26
sV\u0aa7\u0ac0 
p37
I652
sV\u0a9f\u0aa8
p38
I678
sV\u0abe\u0a87
p39
I402
sV  
p40
I288
sV\u0ac7
I2
sV\u0ac0\u000a
p41
I292
sV\u0abf\u0aaf\u0abe
p42
I351
sV\u0aa6 
p43
I403
sV\u0ab0\u0ac0 
p44
I168
sV\u0abe\u0a82\u0aa5
p45
I841
sV\u0a98\u0aa3
p46
I926
sV\u0a97\u0abe
p47
I371
sV\u0abe\u0a82\u0aa4
p48
I836
sV\u0ab2\u0acd\u0ab2
p49
I929
sV\u0ab5\u0acd
p50
I210
sV\u0ac0 
p51
I18
sV\u0ab5\u0abe\u0aaf
p52
I930
sV\u0ae7
I264
sV\u0aa5\u0ac7
p53
I429
sV\u0aa5\u0ac0
p54
I127
sV\u0a95\u0ab2
p55
I679
sV\u0aa7\u0ab0\u0abe
p56
I843
sV\u0aa5\u0ab5\u0abe
p57
I807
sV\u0aa8\u0acb 
p58
I142
sV\u0ac0\u0aa8\u0ac0
p59
I847
sV\u0ac0\u0aa8\u0ac7
p60
I537
sV\u0aa1\u0acb
p61
I809
sV\u0ac0\u0a82
p62
I779
sV\u0ab8\u0aa8
p63
I486
sV\u000a\u0a86 
p64
I400
sV\u0ab8\u0aae
p65
I217
sV\u0abe\u0aae
p66
I78
sV\u0ac7\u0aa8\u0ac0
p67
I649
sV\u0aa1\u0acd
p68
I981
sV\u0aa7 
p69
I441
sV\u0ab0\u0acd\u0aae
p70
I700
sV \u0a95\u0acb
p71
I459
sV\u0abe\u0aa4 
p72
I946
sV\u0ab8\u0abe
p73
I117
sV\u0abe\u0aa8 
p74
I309
sV\u0aa3\u0abe
p75
I436
sV\u0ab8\u0ab0
p76
I357
sV\u0a86\u0ab5\u0acd
p77
I591
sV \u0aa8\u0ac7
p78
I988
sV\u0a9c
I24
sV\u0a9f\u0abf
p79
I686
sV\u0a9f\u0abe
p80
I390
sV\u0abe\u0aa3
p81
I277
sV \u0ab5\u0acd
p82
I696
sV\u0ab8\u0a82
p83
I192
sV\u0ac7\u000a\u0a9c
p84
I952
sV\u0aac
I49
sV\u0a9f\u0ab0
p85
I590
sV\u0a85\u0aa8\u0ac7
p86
I92
sV\u0ac7 
p87
I12
sV\u0ac0\u0a95\u0ac7
p88
I553
sV\u0a85\u0aa8\u0acd
p89
I953
sV \u0ab0\u0ab9
p90
I518
sV\u0acd\u0ab8 
p91
I535
sV\u0a89\u0aaa\u0aaf
p92
I902
sV\u0acb \u0a9b
p93
I775
sV\u0abf\u0ab8
p94
I339
sV\u0abe \u0a85
p95
I299
sV\u0aaa\u0ab0 
p96
I387
sV\u0abf\u0ab5
p97
I335
sV\u0abe \u0a86
p98
I731
sV\u0abf\u0ab2
p99
I334
sV\u0abf\u0ab0
p100
I398
sV\u0abf\u0aaf
p101
I171
sV\u0abf\u0aae
p102
I533
sV\u0a9f\u0acd
p103
I337
sV\u0abe\u0ab0\u0abe
p104
I354
sV\u0a9f\u0acb
p105
I694
sV\u0aa6\u0abe
p106
I258
sV\u0abe \u0a9b
p107
I688
sV\u0abf\u0aa8
p108
I254
sV\u0a9f\u0ac7
p109
I160
sV\u0abf\u0aa6
p110
I882
sV\u0a9c\u0ac7 
p111
I468
sV\u0abf\u0aa4
p112
I178
sV\u0acd\u0ab6
p113
I838
sV\u0aa4\u0acb
p114
I201
sV\u0abf\u0a9f
p115
I711
sV\u0abe \u0aac
p116
I640
sV\u0abe\u0aa3\u0ac0
p117
I822
sV\u0abe \u0aae
p118
I228
sV \u0aa8\u0abf
p119
I521
sV\u0a85\u0aa8
p120
I76
sV\u0ab8\u0acc
p121
I901
sV\u0abe \u0aaa
p122
I202
sV\u0a85\u0aa5
p123
I958
sV\u0abe \u0aa4
p124
I555
sV\u0abf\u0a95
p125
I125
sV\u0ab8\u0ac1
p126
I407
sV\u0ab8\u0ac7
p127
I360
sV \u0ab8\u0acc
p128
I969
sV \u0aaf\u0ac1
p129
I687
sV\u0acb\u0aa4\u0abe
p130
I884
sV\u0ab0\u0ac1
p131
I675
sV\u0abe \u0ab9
p132
I353
sV\u0abe \u0ab8
p133
I247
sV\u0a9c 
p134
I259
sV\u0abe \u0ab5
p135
I384
sV\u0ab5\u0ac7\u0ab2
p136
I528
sV\u0aa4\u0abe\u000a
p137
I595
sV\u0abf\u0a82
p138
I493
sV\u0abe \u0ab2
p139
I854
sV\u000a\u0a9c
p140
I570
sV\u0ab3 
p141
I434
sV\u0ab5\u0ab5\u0abe
p142
I665
sV\u0a82 \u0a9b
p143
I629
sV\u000a\u0a95
p144
I739
sV\u0aa3 
p145
I133
sV\u0a82\u000a
p146
I364
sV\u000a\u0a8f
p147
I920
sV\u0abe\u0aa4\u0acd
p148
I713
sV\u0aa4\u0ac0
p149
I149
sV\u0ab7\u0abe
p150
I943
sV\u000a\u0a85
p151
I715
sV\u000a\u0a86
p152
I269
sV\u0a9d
I300
sV\u0aa1\u0abf
p153
I616
sV\u0aa1\u0abe
p154
I401
sV\u0abe\u0a88
p155
I507
sV \u0a95\u0ac7
p156
I176
sV\u0a82 
p157
I22
sV\u0a95\u0acd\u0aa4
p158
I708
sV\u0aac\u0acd\u0ab0
p159
I942
sV\u000a\u0ab5
p160
I817
sV\u0aad
I95
sV\u0ab0\u0abe\u0aa4
p161
I938
sV\u000a\u0aac
p162
I976
sV\u000a\u0aae
p163
I657
sV\u000a\u0aaa
p164
I576
sV\u000a\u0aa4
p165
I283
sV\u0ab0\u0abe\u0ab5
p166
I587
sV\u0abe\u0ab0\u0aa8
p167
I742
sV\u0a9a\u0ac7
p168
I724
sV \u0a85\u0aa8
p169
I82
sV \u0a85\u0aa5
p170
I989
sV\u0acd
I5
sV\u0aae\u0ab0
p171
I974
sV\u0abe\u0ab0\u0aa4
p172
I716
sV\u0aa1\u0ac0
p173
I446
sV\u0aae\u0ab3
p174
I727
sV\u0ab0\u0ac0\u0a95
p175
I469
sV\u0aa1\u0ac7
p176
I594
sV\u0aaa\u0acd\u0ab0
p177
I107
sV\u0abe\u0a9f\u0ac7
p178
I276
sV\u0ac0 \u0aa8
p179
I523
sV \u0a85\u0a82
p180
I620
sV\u0ab0\u0acb 
p181
I545
sV\u0abe\u0ab0\u0aa3
p182
I624
sV\u0a9c\u0acd\u0aaf
p183
I551
sV\u0a9a\u0acd
p184
I789
sV\u0a82
I11
sV\u0aaf\u0acb\u0a97
p185
I597
sV\u0acb \u0a89
p186
I933
sV\u0acd\u0ab5\u0abe
p187
I406
sV\u0a9a\u0ac0
p188
I993
sV\u0ac0\u0aaf
p189
I350
sV\u0acb\u0aa8\u0ac0
p190
I887
sV\u0acb\u0aa8\u0ac7
p191
I816
sV \u0aac\u0ac7
p192
I645
sV\u0acd\u0ab0\u0ac0
p193
I442
sV\u0ab5\u0aa7\u0ac1
p194
I931
sV\u0ab7 
p195
I888
sV\u0ab2
I20
sV\u0a95\u0acb\u0aa8
p196
I925
sV\u0aaa\u0aa3 
p197
I289
sV\u0aaf\u0abe 
p198
I237
sV\u0aae\u0ac2
p199
I827
sV\u0ac2
I101
sV\u0aa7\u0ac0
p200
I449
sV\u0ac7\u0aae\u0abe
p201
I712
sV \u0aac\u0aa8
p202
I479
sV\u0aaa\u0acb\u0aa4
p203
I895
sV\u0aa8\u0abe\u0a82
p204
I802
sV\u0a9b\u0ac7
p205
I52
sV \u0aac\u0abe
p206
I440
sV\u0ac7\u0aae\u0aa8
p207
I367
sV\u0aa7\u0acd
p208
I747
sVa
I792
sV\u0abe\u0ab0\u0acd
p209
I280
sV\u0ac0\u0a8f
p210
I871
sV\u0ab8\u0abe\u0aa5
p211
I451
sV\u0acb\u0aa8\u0abe
p212
I970
sV\u0ab8\u0abe\u0aae
p213
I586
sV\u0ab8\u0abe\u0ab0
p214
I994
sV\u0a9a\u0abe
p215
I316
sV\u0a9a\u0abf
p216
I797
sV\u0aa8\u0abe\u0aa8
p217
I935
sV\u0ab5\u0acb
p218
I667
sV\u0ab0\u0ab9\u0ac7
p219
I923
sV\u0aa8\u0abe\u0aae
p220
I637
sV\u0ac7\u0a96
p221
I907
sV\u0ac7\u0a95
p222
I359
sV \u0ab9\u0acb
p223
I308
sV\u0ac7\u0a93
p224
I701
sV\u0ab0 \u0a95
p225
I602
sV\u0ac7\u0a9f
p226
I271
sV\u0ab8 
p227
I156
sV\u0abe\u0aa8\u0abe
p228
I348
sV\u0ab8\u0acd\u0ab5
p229
I689
sV\u0a9c\u0ac7
p230
I155
sV\u0a87\u0aa8
p231
I632
sV\u0a9c\u0ac0
p232
I326
sV\u0a9c\u0ac1
p233
I863
sV\u0ae7\u0aef
p234
I704
sV\u0a9b
I40
sV\u0a9c\u0acd
p235
I380
sV\u0a9c\u0acb
p236
I332
sV\u0aaf \u0a9b
p237
I220
sV\u0ac7\u0ab6
p238
I284
sV\u0ac7\u0ab5
p239
I246
sV\u0aaf\u0ac1\u0a82
p240
I285
sV\u0ac7\u0ab0
p241
I223
sV\u0abf\u0a82\u0a97
p242
I849
sV\u0aab
I115
sV\u0ab0 \u0ab8
p243
I753
sV\u0a95\u0abe\u0aae
p244
I934
sV\u0ac7\u0ab8
p245
I569
sV\u0a95\u0abe\u0ab0
p246
I182
sV \u0ab2\u0ac7
p247
I761
sV\u0ac7\u0aa4
p248
I546
sV\u0ab9\u0ac7\u0ab2
p249
I874
sV\u0ac7\u0aa1
p250
I750
sV\u0ab9\u0ac7\u0ab0
p251
I733
sV\u0ac7\u0aae
p252
I137
sV\u0aaf \u0ab8
p253
I982
sV\u0ab0 \u0aae
p254
I875
sV\u0ab5\u0ac0 
p255
I306
sV\u0ac7\u0aa8
p256
I106
sV\u0a82 \u0ab0
p257
I868
sV\u0a9b\u0ac7\u000a
p258
I73
sV\u0a82 \u0ab5
p259
I565
sV\u0acb \u0a85
p260
I483
sV\u0a82 \u0ab9
p261
I388
sV\u0a82 \u0ab8
p262
I363
sV\u0acb
I13
sV \u0ab2\u0abe
p263
I635
sV\u0acb\u0aae\u0abe
p264
I579
sV\u0a9c\u0ac7\u0aa8
p265
I980
sV \u0aaa\u0abe
p266
I256
sV\u0a9c\u0ac7\u0aae
p267
I740
sV\u0a82 \u0aa4
p268
I520
sV\u0aaa\u0ab0\u0abf
p269
I899
sV \u0ae7\u0aef
p270
I898
sV\u0a82 \u0aa8
p271
I647
sV\u0a82 \u0aaa
p272
I340
sV\u0acb \u0a9c
p273
I927
sV\u0a82 \u0aac
p274
I879
sV\u0abf 
p275
I393
sV\u0acd\u0aa5\u0abe
p276
I564
sV\u0a82 \u0a95
p277
I454
sV\u0ab0\u0ac7 
p278
I222
sV\u0a95 \u0ab8
p279
I660
sV\u0a9c\u0abe
p280
I216
sV\u0a9c\u0abf
p281
I866
sV\u0acb \u0aaa
p282
I504
sV\u0ab5\u0ac7 
p283
I278
sV \u0ab9\u0aa4
p284
I110
sV\u0a82 \u0a9c
p285
I599
sV\u0acb \u0aae
p286
I824
sV\u0aae\u0abe\u0ab0
p287
I673
sV\u0abe\u0aa8\u0ac7
p288
I738
sV\u0a82 \u0a85
p289
I585
sV\u0abe\u0aa8\u0ac0
p290
I318
sV \u0ab9\u0abe
p291
I852
sV\u0a82 \u0a86
p292
I166
sV\u0acb \u0ab8
p293
I516
sV\u0acb \u0ab9
p294
I413
sV\u0aad\u0abe
p295
I185
sV\u0a9c\u0aa8
p296
I492
sV\u0aae\u0aa3\u0ac7
p297
I828
sV \u0ae7
p298
I463
sV\u0aa7\u0ab0
p299
I581
sV\u0aa7\u0abf
p300
I910
sV\u0aa7\u0abe
p301
I291
sV\u0a95\u0ab0\u0aa4
p302
I856
sV \u0aaa\u0ab0
p303
I188
sV\u0aaf\u0abe\u0a82
p304
I751
sV\u0aaa\u0abf
p305
I831
sV\u0abe 
p306
I19
sV\u0ac7\u000a\u0aaa
p307
I997
sV\u0a95\u0ab0\u0ab5
p308
I312
sV\u0a8f\u0aae
p309
I950
sV\u0a86\u0ab0
p310
I858
sV\u0aa0
I435
sV \u0a95\u0abe
p311
I224
sV\u0a86\u0ab5
p312
I141
sV \u0aa7\u0ab0
p313
I671
sV \u0a95\u0ab0
p314
I98
sV\u0ac0\u0aaf 
p315
I536
sV\u0aa6\u0ac0
p316
I452
sV\u0ab0
I3
sV\u0abe\u000a
p317
I389
sV\u0aa6\u0ac7
p318
I378
sV\u0a86\u0aaa
p319
I526
sV\u0abe\u0aa8\u0ac1
p320
I697
sV\u0aa6\u0acd
p321
I162
sV\u0aa6\u0ab0
p322
I298
sV\u0ac0
I6
sV \u0aa1
p323
I439
sV \u0aa6
p324
I109
sV \u0aa7
p325
I301
sV \u0aa4
p326
I57
sV \u0aa5
p327
I159
sV \u0aaa
p328
I27
sV \u0aab
p329
I243
sV \u0aa8
p330
I83
sV \u0aae
p331
I47
sV \u0aaf
p332
I386
sV \u0aac
p333
I90
sV \u0aad
p334
I169
sV \u0ab2
p335
I132
sV\u0ac0\u0a93
p336
I445
sV \u0ab0
p337
I93
sV \u0ab6
p338
I128
sV \u0ab5
p339
I56
sV\u0aa6\u0aa8
p340
I947
sV \u0ab8
p341
I28
sV \u0ab9
p342
I65
sV\u0abe\u0aaf\u0ac7
p343
I973
sV\u0ac0\u0a9c
p344
I764
sV\u0aa8 \u0aaa
p345
I908
sV\u0a95\u0ab0\u0acd
p346
I448
sV \u0a86
p347
I66
sV \u0a87
p348
I543
sV\u0ac0\u0aa4
p349
I358
sV \u0a85
p350
I43
sV\u0abf\u0aa4 
p351
I379
sV\u0a95\u0ab0\u0ac7
p352
I653
sV\u0ac0\u0aa8
p353
I151
sV \u0a89
p354
I173
sV\u0ac0\u0aae
p355
I490
sV \u0a8f
p356
I113
sV\u0a95\u0ab0\u0ac0
p357
I396
sV \u0a93
p358
I366
sV\u0ac0\u0ab0
p359
I758
sV\u0a9b\u0ac0
p360
I839
sV \u0a96
p361
I267
sV \u0a97
p362
I146
sV\u0aa7\u0ac1
p363
I672
sV \u0a95
p364
I29
sV \u0a9a
p365
I231
sV \u0a9b
p366
I50
sV \u0a98
p367
I456
sV \u0a9f
p368
I324
sV \u0a9c
p369
I61
sV\u0aaa\u0aaf\u0acb
p370
I885
sV\u0aae\u0abe\u0a9f
p371
I272
sV\u0ac0\u0a95
p372
I248
sV\u0ac0\u0aae\u0abe
p373
I720
sV\u0aae\u0a82
p374
I785
sV\u0acd\u0a9f 
p375
I559
sV \u0a86\u0ab5
p376
I144
sV\u0ac0\u0a93 
p377
I788
sV\u0aa5\u0ac7 
p378
I503
sV\u0aae\u0abe\u0a82
p379
I42
sV\u0aa6\u0abf
p380
I467
sV\u0a9c\u0ac0 
p381
I972
sV\u0aa1
I60
sV\u0acd\u0ab0\u0aa4
p382
I821
sV\u0abe\u0ab5\u0ac7
p383
I606
sV\u0aaf\u0abe\u0ab0
p384
I432
sV\u0aa5\u0ac0 
p385
I139
sV\u0ac3\u0aa4
p386
I609
sV\u0aaf\u0acb 
p387
I321
sV\u0aaf\u0abe\u0aa8
p388
I575
sV\u0aae\u0abe\u0aa8
p389
I375
sV\u0aaf\u0ac7
p390
I478
sV\u0a95\u0acb 
p391
I662
sV\u0ac1
I21
sV\u0aa4\u0ac1\u0a82
p392
I373
sV\u0acb\u0a9c
p393
I698
sV\u0ab2\u0a97
p394
I867
sV\u0aa8\u0abe\u0ab5
p395
I890
sV\u0abe\u0ab5\u0ab5
p396
I829
sV\u0a82 \u0a8f
p397
I987
sV\u0aa8\u0ac7 
p398
I46
sV\u0a96\u0acd\u0aaf
p399
I600
sV\u0a9a\u0abe\u0ab0
p400
I864
sV\u0ac0\u0aa4\u0ac7
p401
I776
sV\u0aa3\u0ac7 
p402
I345
sV\u0a82\u0aa5\u0ac0
p403
I818
sV\u0a9a 
p404
I851
sV\u0ac2\u0aaa
p405
I971
sV\u0ac1\u0aa7
p406
I729
sV\u0aa8\u0abe 
p407
I59
sV\u0a89\u0aa4\u0acd
p408
I904
sV\u0ac2\u0ab0
p409
I370
sV\u0ac1\u0aa7\u0ac0
p410
I892
sV \u0ab6\u0a95
p411
I506
sV\u0aae\u0ac0 
p412
I862
sV\u0ab8\u0abf
p413
I355
sV\u0acd\u0aa5
p414
I229
sV\u0acd\u0aa4
p415
I126
sV\u0acd\u0aa7
p416
I476
sV\u0acd\u0aa6
p417
I589
sV\u0acd\u0aa1
p418
I319
sV\u0ac0 \u0aa6
p419
I668
sV\u0acd\u0aa3
p420
I772
sV\u0a86
I51
sV \u0aa4\u0ac7
p421
I100
sV\u0ac0 \u0aaa
p422
I230
sV\u0acd\u0aaf
p423
I39
sV\u0acd\u0aae
p424
I270
sV\u0ac0 \u0aae
p425
I349
sV\u0acd\u0aaa
p426
I408
sV\u0acd\u0ab5
p427
I131
sV\u0a82\u0a95
p428
I534
sV\u0acd\u0ab7
p429
I184
sV\u0a82\u0a97
p430
I211
sV\u0acd\u0ab0
p431
I36
sV\u0ac0 \u0ab5
p432
I328
sV\u0acd\u0ab2
p433
I294
sV\u0ac0 \u0ab9
p434
I330
sV\u0ac0 \u0ab8
p435
I205
sV\u0acd\u0ab8
p436
I193
sV\u0a82\u0a9a
p437
I623
sV\u0a82\u0aa4
p438
I234
sV\u0a82\u0aa5
p439
I719
sV\u0a82\u0aa6
p440
I368
sV\u0a82\u0aa7
p441
I499
sV\u0ac0 \u0a86
p442
I562
sV\u0ac0 \u0a85
p443
I343
sV\u0aa6
I31
sV\u0a82\u0aac
p444
I737
sV\u0ab0\u0abe 
p445
I369
sV\u0a82\u0a97 
p446
I773
sV\u0a97\u0ab0
p447
I770
sV\u0a82\u0aaa
p448
I745
sV\u0ac7\u000a
p449
I72
sV\u0acd\u0a95
p450
I281
sV\u0ac7\u0a93 
p451
I796
sV\u0acd\u0a97
p452
I921
sV\u0ac0 \u0a97
p453
I810
sV\u0ac0 \u0a95
p454
I310
sV\u0ab6
I53
sV\u0ac0 \u0a9b
p455
I628
sV\u0acd\u0a9c
p456
I826
sV\u0acd\u0a9f
p457
I123
sV\u0a82\u0ab8
p458
I819
sV\u0ac0 \u0a9c
p459
I376
sV\u0ac7 \u0a9c
p460
I198
sV\u0a95\u0abe 
p461
I962
sV\u0ab6\u0acb
p462
I865
sV\u0ac7 \u0a9b
p463
I135
sV\u0aaa 
p464
I774
sV\u0ac7 \u0a95
p465
I208
sV\u0ac7 \u0a97
p466
I869
sV \u0a9a\u0abe
p467
I855
sV\u0ac7 \u0a8f
p468
I596
sV\u0ac7 \u0a85
p469
I236
sV\u0ac7 \u0a86
p470
I374
sV\u0abe\u0ab8 
p471
I648
sV\u0aa8\u0aa5
p472
I891
sV\u0ac7 \u0ab8
p473
I204
sV\u0ac7 \u0ab9
p474
I820
sV\u0acd\u0a9f\u0acd
p475
I706
sV\u0ae6
I411
sV\u0ac7 \u0ab5
p476
I338
sV\u0ac7 \u0ab6
p477
I932
sV\u0aa3\u0ac0
p478
I341
sV\u0aa3\u0ac7
p479
I331
sV\u0ac7 \u0ab2
p480
I728
sV\u0ac7 \u0aac
p481
I466
sV\u0a95 \u0aaa
p482
I815
sV\u0ac7 \u0aae
p483
I303
sV\u0a89\u0aaa
p484
I418
sV\u0acd\u0aa4\u0abe
p485
I547
sV\u0acd\u0aa4\u0abf
p486
I683
sV\u0ac7 \u0aaa
p487
I196
sV\u0ab8\u0aae\u0aaf
p488
I870
sV\u0ac7 \u0aa4
p489
I158
sV\u0aa8\u0aae
p490
I893
sV\u0ac7 \u0aa6
p491
I781
sV\u0aa4\u0aae\u0abe
p492
I845
sV\u0a89\u0aa4
p493
I813
sV \u0aa4\u0ab0
p494
I422
sV\u0aa4\u0acd\u0aa4
p495
I625
sV\u0aa4\u0acd\u0ab0
p496
I191
sV \u0ab8\u0a82
p497
I238
sV\u0ab0\u0acd\u0ab5
p498
I734
sV\u0a95\u0ac7 
p499
I153
sV\u0aae\u0abe\u0aa3
p500
I984
sV\u0a8f
I74
sV\u0aa4\u0acd\u0aaf
p501
I356
sV \u0aaa\u0acd
p502
I121
sV\u0acd\u0ab0\u0a95
p503
I707
sV\u0aa4\u0acd\u0ab5
p504
I795
sV\u0aa4\u0acb 
p505
I382
sV\u0aa6\u0acd\u0aa7
p506
I656
sV\u0aae\u0ac7 
p507
I897
sV\u0ab5\u0ac7
p508
I129
sV \u0aaa\u0ac1
p509
I670
sV\u0ab5\u0ac0
p510
I195
sV\u0a9f
I30
sV \u0aaa\u0ac2
p511
I860
sV\u0aae\u0aa8
p512
I175
sV\u0ac1 
p513
I235
sV\u0a95\u0acd\u0ab7
p514
I263
sV\u0aa4\u0acd
p515
I89
sV \u0ab8\u0aae
p516
I279
sV\u0a97 
p517
I241
sV\u0acd\u0ab0\u0aae
p518
I540
sV\u0aa4\u0ac7
p519
I68
sV\u0aae\u0aa3
p520
I588
sV\u0aae\u0aa4
p521
I878
sV\u0aaf
I15
sV\u0aa4\u0ac1
p522
I227
sV\u0aae\u0ab9
p523
I612
sV\u0ab0 
p524
I62
sV \u0ab8\u0abf
p525
I808
sV \u0ab8\u0abe
p526
I167
sV\u0aae\u0abe
p527
I23
sV\u0aae\u0abf
p528
I327
sV\u0acd\u0ab0\u0abe
p529
I317
sV\u0acd\u0ab0\u0abf
p530
I417
sV \u0aaa\u0acb
p531
I633
sV \u0ab8\u0ab0
p532
I634
sV\u0aa4\u0acb\u000a
p533
I658
sV\u0abf
I16
sV\u0aa4\u0aae
p534
I693
sV\u0acd\u0ab0\u0ac7
p535
I447
sV\u0aae\u0acb
p536
I290
sV\u0aa7\u0acd\u0aaf
p537
I965
sV\u0aae\u0acd
p538
I426
sV \u0ab8\u0acd
p539
I170
sV\u0ab0\u0abf\u0aaf
p540
I692
sV\u0aae\u0ac0
p541
I437
sV\u0aae\u0ac1
p542
I314
sV \u0ab8\u0ac1
p543
I472
sV\u0a8f\u0a95 
p544
I333
sV \u0ab8\u0ac7
p545
I793
sV\u0acd\u0ab0\u0acb
p546
I519
sV\u0aaa\u0ac1\u0ab0
p547
I955
sV\u0aae\u0ac7
p548
I203
sV\u0aa4\u0abe
p549
I80
sV\u0aa4\u0abf
p550
I174
sV\u0aab 
p551
I804
sV\u0abe\u0ab0\u0acb
p552
I755
sV\u0aac\u0aa8\u0abe
p553
I963
sV\u0abe\u0ab0\u0ac7
p554
I433
sV\u0abe\u0ab0\u0ac0
p555
I611
sV\u0aa4\u0ab0
p556
I206
sV\u0ab8\u0ac1\u0aa7
p557
I767
sV\u0ab5\u0abf
p558
I116
sV\u0ab5\u0abe
p559
I44
sV \u0aaa\u0ab9
p560
I945
sV\u0ab5\u0ab8
p561
I457
sV\u0ab5\u0ab5
p562
I601
sV\u0ab5\u0ab0
p563
I218
sV\u0aef
I488
sV\u0ab0\u0a95\u0abe
p564
I644
sV\u0ab5\u0aa8
p565
I508
sV\u0a87 
p566
I626
sV\u0ab5\u0aa4
p567
I485
sV\u0ab5\u0aa7
p568
I514
sV \u0ab6\u0abe
p569
I951
sV\u0ac1\u0aae
p570
I909
sV \u0aaa\u0aa3
p571
I320
sV\u0ab6 
p572
I489
sV\u0aaf\u0acb
p573
I140
sV\u0ab0 \u0a85
p574
I903
sV\u000a\u0ab8
p575
I614
sV\u0ac7\u0ab2\u0abe
p576
I420
sV\u0aaf\u0ac1
p577
I136
sV\u0a9f\u0acd\u0ab0
p578
I517
sV \u0aa6\u0abf
p579
I873
sV\u0abe\u0a93 
p580
I710
sV\u0abf\u0a95 
p581
I275
sV\u0aa4
I8
sV\u0aae\u0aa8\u0ac0
p582
I777
sV\u0a95\u0acd
p583
I99
sV\u0abf\u0ab7
p584
I940
sV\u0ab0\u0ac0\u0aa4
p585
I705
sV\u0a95\u0acb
p586
I164
sV\u0abf\u0ab6
p587
I450
sV\u0ac1\u0ab0
p588
I409
sV\u0a95\u0ac7
p589
I104
sV\u0acd\u0aaf 
p590
I233
sV\u0a95\u0ac1
p591
I757
sV\u0a95\u0ac0
p592
I539
sV\u0a95\u0ac3
p593
I956
sV\u0acb\u0aa4
p594
I549
sV\u0a95\u0abf
p595
I604
sV\u0a95\u0abe
p596
I88
sV\u0acb\u0aaf 
p597
I572
sV\u0ab0\u0acd\u0aa3
p598
I966
sV\u0a95\u0ab0
p599
I87
sV\u0ac7\u0a95\u0acd
p600
I990
sV\u0acc
I578
sV\u0a95\u0aae
p601
I960
sV\u0a95\u0aa8
p602
I619
sV\u0abe\u0aa5\u0ac7
p603
I471
sV\u0aaf\u0a95
p604
I638
sV\u0a93 
p605
I215
sV\u0ac7\u0ab5\u0abe
p606
I427
sV\u0abe\u0aa5\u0ac0
p607
I937
sV\u0ac7\u0ab2
p608
I134
sV\u0aaf\u0aae
p609
I676
sV\u0aaf\u0aa8
p610
I425
sV\u000a\u0aa4\u0ac7
p611
I361
sV\u0a97\u0acd\u0ab0
p612
I431
sV\u0aaf\u0abe
p613
I77
sV\u0ac7\u0ab2\u0ac0
p614
I798
sV\u0aa7\u0abe\u0ab0
p615
I525
sV\u0a95\u0acd\u0ab0
p616
I460
sV\u0ab0\u0aa8\u0abe
p617
I618
sV \u0ab5\u0abe
p618
I461
sV \u0ab5\u0abf
p619
I161
sV\u0a85
I38
sV\u0aa1 
p620
I336
sV\u0ac7\u0ab6 
p621
I881
sV\u0acb\u0aa8
p622
I183
sV \u0ab5\u0ab0
p623
I494
sV\u0acb\u0aae
p624
I372
sV\u0ab9\u0aa4\u0abe
p625
I383
sV\u0abe \u0a95
p626
I286
sV\u0acb\u0ab0
p627
I304
sV\u0a95
I9
sV\u0acb\u0ab5
p628
I603
sV\u0ac7\u000a\u0a86
p629
I455
sV \u0ab5\u0aa7
p630
I554
sV\u0abe \u0aa8
p631
I556
sV\u0abe\u0aae 
p632
I524
sV\u0acb\u0a82
p633
I906
sV \u0aae\u0acb
p634
I513
sV\u0aa5
I41
sV\u0aac 
p635
I783
sV \u0aae\u0ac1
p636
I491
sV\u0ab0\u0aa5
p637
I725
sV\u0ac0 \u0aa4
p638
I473
sV\u0a97\u0aa8
p639
I782
sV\u0a9f\u0ac7 
p640
I293
sV \u0aae\u0ac7
p641
I568
sV \u0a9c\u0ac7
p642
I181
sV\u0a85\u0aa5\u0ab5
p643
I998
sV\u0ac7\u0aa8\u0ac7
p644
I677
sV\u0ab5
I10
sV\u0acb\u0a95
p645
I315
sV\u0acd\u0aac
p646
I900
sV\u0ac7\u0aa8\u0acd
p647
I424
sV\u0ac7\u000a\u0aa4
p648
I654
sV\u0a9f\u0ac0
p649
I344
sV\u0acb\u0a9f
p650
I438
sV\u0aad\u0abe\u0a97
p651
I621
sV\u0abe \u0aad
p652
I954
sV\u0aa8\u0ac0 
p653
I70
sV\u0ab8\u0acb
p654
I736
sV \u0a9c\u0abe
p655
I465
sV\u0ac7\u0aa8\u0abe
p656
I444
sV\u0acd\u0aa8
p657
I527
sV \u0aae\u0ab9
p658
I663
sV\u0a85\u0aae
p659
I916
sV\u0aa4\u0abe 
p660
I180
sV \u0aae\u0abe
p661
I114
sV \u0aae\u0ab3
p662
I752
sV\u0ac0 \u0aac
p663
I598
sV \u0aa8\u0abe
p664
I268
sV\u0aa5\u0aae
p665
I968
sV\u0aa4\u0ac7 
p666
I190
sV\u0ab9\u0aa4\u0acb
p667
I474
sV\u0ac0 \u0ab2
p668
I859
sV\u0ab8\u0acd
p669
I75
sV\u0ab9\u0aa4\u0ac0
p670
I385
sV\u0ab9\u0aa4\u0ac1
p671
I495
sV\u0a86\u0ab5\u0ac7
p672
I297
sV\u0ac0 \u0ab0
p673
I477
sV \u0ab2\u0acb
p674
I641
sV\u0a86\u0ab5\u0ac0
p675
I928
sV\u0a9f 
p676
I250
sV\u0ab8\u0ac0
p677
I509
sV\u0ac0 \u0ab6
p678
I419
sV\u0abe \u0aa6
p679
I681
sV\u0aab\u0ac7
p680
I861
sV\u0a96
I96
sV\u0aaa\u0aa8
p681
I695
sV\u0aec
I991
sV\u0ab0\u0ab5\u0abe
p682
I239
sV\u0aa8\u0aa5\u0ac0
p683
I896
sV \u0ab6\u0ab0
p684
I964
sV\u0a9a
I79
sV\u0a9c\u0abe 
p685
I995
sV\u0aae\u0acb\u0a9f
p686
I732
sV\u0aed
I992
sV \u0a9c\u0ac0
p687
I985
sV\u0acd\u0aa4 
p688
I823
sV\u0ac1\u0ab8
p689
I844
sV\u0aaa
I17
sV\u0ab8\u0aae\u0abe
p690
I574
sV\u0aaa\u0acd
p691
I94
sV\u0ab2 
p692
I163
sV\u0aaa\u0acb
p693
I416
sV\u0a82\u0aa1
p694
I703
sV\u0a88 
p695
I423
sV\u0aaa\u0ac7
p696
I532
sV\u0aaa\u0ac0
p697
I593
sV\u0aaa\u0ac1
p698
I480
sV\u0aaa\u0ac2
p699
I558
sV\u0ab2\u0acb\u0a95
p700
I714
sV\u0aaa\u0abe
p701
I154
sV\u0ab5\u0ab0\u0acd
p702
I342
sV\u0aaa\u0ab9
p703
I886
sV\u0ab0\u0aa4\u0abe
p704
I769
sV\u0ab5\u0abe\u0aa8
p705
I302
sV\u0ac1\u0a82\u000a
p706
I453
sV\u0aaa\u0ab0
p707
I138
sV\u0aa3 \u0a95
p708
I799
sV\u0ab5\u0abe\u0aae
p709
I197
sV\u0a8f 
p710
I245
sV\u0ab5\u0abe\u0ab0
p711
I313
sV\u0aaa\u0aaf
p712
I876
sV \u0a86\u0aaa
p713
I542
sV\u0aaa\u0aa4
p714
I979
sV\u0aa8 
p715
I85
sV\u0aaa\u0aa1
p716
I917
sV\u0aaa\u0aa3
p717
I251
sV\u0ac1\u0a82 
p718
I91
sV\u0aa5\u0abe 
p719
I914
sV\u0ac7 \u0aad
p720
I967
sVi
I877
sV\u0aa6\u0ac7\u0ab6
p721
I723
sV\u0abe \u0ab0
p722
I636
sV \u0a9c\u0acd
p723
I948
sV\u0aa4 \u0a95
p724
I631
sV\u0ac7\u0a9c
p725
I825
sV\u0aab\u0abf
p726
I850
sV\u0aab\u0abe
p727
I919
sV\u0acb \u0a95
p728
I643
sV\u0abf\u0a95\u0abe
p729
I639
sV\u0acb\u0a97 
p730
I837
sV\u0ab6\u0aa8
p731
I505
sV\u0ac0 \u0a8f
p732
I905
sV\u0aaa\u0ab0\u0abe
p733
I944
sV\u0acb\u0aa1
p734
I487
sV\u0acd\u0aaf\u0a95
p735
I918
sV\u0ab6\u0ab0
p736
I760
sV \u0a86 
p737
I410
sV\u0a93
I102
sV\u0ac7\u0ab2 
p738
I718
sV \u0a97\u0abe
p739
I814
sV\u0ab5\u0acd\u0aaf
p740
I225
sV\u0ab6\u0abe
p741
I381
sV\u0ab6\u0abf
p742
I550
sV\u0aa3
I55
sV\u0aae\u0aa8\u0abe
p743
I582
sV\u0acd\u0aaf\u0abe
p744
I122
sV\u0ab0\u0abf\u0a95
p745
I759
sV\u0ab0\u0aae\u0abe
p746
I458
sV\u0ac7\u0a9f\u0ab2
p747
I801
sV\u0ab3
I97
sVn
I996
sV\u0ab6\u0a95
p748
I430
sV\u0a82 \u0aae
p749
I484
sV\u0a95\u0abe\u0aaf
p750
I939
sV\u0ac3
I362
sV\u0aa8\u0acd\u0a9f
p751
I557
sV\u0ab5\u0abf\u0a95
p752
I924
sV\u0aa7\u0ac1 
p753
I978
sV\u0acb\u0aaf
p754
I501
sV\u0abe \u0a9c
p755
I583
sV\u0acd\u0aaf\u0acb
p756
I296
sV \u0a89\u0aaa
p757
I443
sV\u0a93\u0aa8
p758
I531
sV\u0acb\u0a95\u0acb
p759
I911
sV\u0acb \u0aa4
p760
I983
sV\u0acd\u0aaf\u0ac1
p761
I212
sV \u0a89\u0aa4
p762
I883
sV\u0a95 
p763
I86
sV\u0aa8\u0acd\u0ab8
p764
I749
sV\u0a9c\u0ab0
p765
I709
sV\u0acb\u0ab2
p766
I421
sV\u0ab6\u0ac7
p767
I735
sV\u0ab6\u0acd
p768
I322
sV\u0aaf 
p769
I84
sV\u0aa8\u0acd\u0aaf
p770
I352
sV\u0aae\u0aaf
p771
I786
sV\u0acd\u0a9a
p772
I538
sV\u0aa3\u0aa8
p773
I975
sV\u0aa8\u0acd\u0aa1
p774
I584
sV\u0ab0\u0abe\u0a9c
p775
I496
sV\u0acb\u0ab5\u0abe
p776
I741
sV\u0ac1\u0a82
p777
I71
sV\u0ab0\u0a95
p778
I329
sV\u0a88
I177
sV\u0abe\u0a82 
p779
I35
sV\u0a96\u0acd
p780
I544
sV\u0ab0\u0a82
p781
I541
sV\u0aad\u0abe\u0ab0
p782
I674
sV\u0ac1\u0a95
p783
I577
sV\u0ac1\u0a96
p784
I835
sV\u0a98
I305
sV\u0ac1\u0a9c
p785
I961
sV\u0aa4\u0abe\u0ab0
p786
I999
sV\u0acb\u0ab8
p787
I986
sV\u0acd\u0ab0 
p788
I464
sV\u0ab0\u0ab5
p789
I186
sV\u0aae 
p790
I143
sV\u0aa8
I4
sV\u0ab7\u0acd
p791
I405
sV\u0ab0\u0ab9
p792
I377
sV\u0ab0\u0abe
p793
I69
sV\u0ab0\u0abf
p794
I157
sV\u0aaf\u0ac7\u0ab2
p795
I763
sV\u0ab0\u0aa3
p796
I249
sV \u0ab0\u0ac0
p797
I680
sV\u0a95\u0ac7\u0a9f
p798
I915
sV\u0aa8 \u0a95
p799
I607
sV\u0ab0\u0aa4
p800
I219
sV\u0aa4\u0abe\u0a82
p801
I669
sV \u0ab0\u0acb
p802
I762
sV\u0ab8
I14
sV\u0ab0\u0aa8
p803
I214
sV\u0ab0\u0aae
p804
I213
sV\u0abe\u0ab0 
p805
I199
sV\u0acb \u0ab5
p806
I894
sV\u0a97\u0ac7
p807
I682
sV\u0ab7\u0aa3
p808
I959
sV\u0aeb
I872
sV\u0a97\u0ac1
p809
I661
sV\u0a97\u0ac0
p810
I613
sV\u0ac8
I502
sV\u0a97\u0acd
p811
I252
sV\u0a97\u0acb
p812
I664
sV \u0ab0\u0abe
p813
I307
sV\u0aa4 
p814
I111
sV\u0ac0\u0ab5
p815
I685
sV\u0ab0\u0ac2
p816
I428
sV\u0abe\u0aa8\u0acd
p817
I655
sV\u0ab0\u0ac0
p818
I81
sV \u0aa5\u0aaf
p819
I615
sV\u0ab0\u0ac7
p820
I112
sV\u0aa4\u0ab0\u0ac0
p821
I481
sV\u0ab0\u0acb
p822
I145
sV\u0ab0\u0acd
p823
I58
sV\u0abf\u0ab2\u0acd
p824
I787
sV\u0ae8
I571
sV\u0aaa\u0ac2\u0ab0
p825
I650
sVo
I941
sV\u0abe\u0aa8\u0acb
p826
I627
sV\u0aa5\u0abe\u0aaf
p827
I717
sV\u0ab0\u0aa3 
p828
I610
sV\u0ab5 
p829
I470
sV\u0a96\u0abe
p830
I347
sV\u0aa8\u0abf\u0a95
p831
I832
sV\u0a89
I148
sV\u0ac2\u0ab0\u0acd
p832
I743
sV\u000a
I32
sV\u0ab0\u0ac0\u0aa8
p833
I857
sV\u0a85\u0a82
p834
I563
sV\u0a9f\u0ab2
p835
I515
sV \u0aa6\u0ac7
p836
I726
sV\u0ab0\u0aa8\u0ac0
p837
I794
sV \u0aad\u0abe
p838
I311
sV \u0aa6\u0acd
p839
I497
sV \u0aa4\u0acd
p840
I592
sV\u0a9b\u0ac7 
p841
I150
sV\u0ab9\u0acb
p842
I240
sV\u0ab9\u0acd
p843
I803
sV\u0ab9\u0ac0
p844
I512
sV\u0ab2\u0abe
p845
I120
sV\u0ab2\u0abf
p846
I392
sV \u0aa5\u0abe
p847
I699
sV\u0ab9\u0ac7
p848
I187
sV\u0aa8\u0acb
p849
I118
sV\u0aa8 \u0ab8
p850
I880
sV\u0aae\u0ac1\u0a96
p851
I922
sV\u0aa8\u0acd
p852
I103
sV\u0ab9
I25
sV\u0acb\u0a97
p853
I404
sV\u0aa8\u0ac0
p854
I64
sV\u0aa8\u0ac1
p855
I152
sV\u0ab2\u0aa8
p856
I721
sV\u0aa8\u0ac7
p857
I37
sV\u0ab5\u0abe 
p858
I172
sV\u0abf\u0ab8\u0acd
p859
I548
sV\u0aa8\u0abe
p860
I33
sV\u0aa8\u0abf
p861
I209
sV\u0a8f\u0aa8
p862
I830
sV\u0ab8\u0acd\u0aa4
p863
I273
sV\u0ab8\u0acd\u0aa5
p864
I346
sV\u0aa6\u0acd\u0ab5
p865
I510
sV\u0ab9\u0aa4
p866
I105
sV\u0aa6\u0acd\u0ab0
p867
I746
sV\u0aa8\u0ab5
p868
I642
sV\u0aa8\u0aa8
p869
I414
sV\u0ab2\u0ac7
p870
I242
sV\u0ab2\u0ac0
p871
I221
sV\u0ab2\u0ac1
p872
I684
sV\u0ab9\u0abf
p873
I482
sV\u0ab9\u0abe
p874
I282
sV\u0ab2\u0acd
p875
I232
sV\u0ab2\u0abe 
p876
I395
sV\u0abe\u0aaf 
p877
I255
sV\u0ac7\u0aae\u0aa3
p878
I912
sV\u0ab2\u0acb
p879
I253
sV \u0aa6\u0ab0
p880
I530
sV\u0ab0\u0acd\u0ab7
p881
I646
sV\u0ab7\u0acd\u0a9f
p882
I765
sV\u0aa6\u0ab0\u0acd
p883
I936
sV\u0ae9
I957
sV \u0a9c\u0acb
p884
I500
sV\u0aa8\u0ac1\u0a82
p885
I179
sV \u0a96\u0abe
p886
I744
sV\u0ab0\u0acd\u0aa5
p887
I848
sV\u0ab8\u0acd\u0a9f
p888
I365
sV\u0ab2\u0acb 
p889
I846
sV \u0a9b\u0ac7
p890
I54
sV\u0abe\u0aa6 
p891
I840
sV\u0ab8\u0acd\u0a95
p892
I806
sV\u0a8f\u0a95
p893
I244
sV\u0ab0\u0acd\u0aaf
p894
I295
sV\u0abe\u0aae\u0abe
p895
I130
sV\u0ac7\u0ab6\u0aa8
p896
I842
sV\u0acb 
p897
I48
sV\u0aac\u0a82
p898
I702
sV\u0ac7 \u0ab0
p899
I666
sV \u0a97\u0ac1
p900
I805
sV\u0aa4\u0ac0\u000a
p901
I560
sV\u0ab5\u0abf\u0ab6
p902
I771
sV\u0aa4\u0abf 
p903
I622
sV\u0ab3\u0ac0
p904
I766
sV\u0aa4\u0aa8
p905
I566
sV\u0ab2\u0ac0 
p906
I498
sV\u0aa5\u0abf
p907
I977
sV\u0aa4\u0ac0 
p908
I274
sV\u0acb\u000a
p909
I391
sV\u0aac\u0aa8
p910
I415
sV\u0aae
I7
sV\u0aa1\u0ac0 
p911
I834
sV \u0aa8\u0ac0
p912
I913
sV\u0aac\u0ab0
p913
I784
sV\u0aac\u0abe
p914
I261
sV\u0ac7 \u0aa8
p915
I552
sV\u0ab6\u0acd\u0ab5
p916
I889
sV\u0acb\u0ab0\u0acd
p917
I691
sV\u0abe
I1
sV\u0aac\u0ac7
p918
I475
sV\u0ab0 \u0aaa
p919
I630
sV\u0aac\u0ac0
p920
I580
sV\u0aac\u0acd
p921
I462
sV\u0ab9\u0acb\u0aaf
p922
I561
sV\u0aac\u0acb
p923
I790
sV\u0aa4\u0ac7\u0a93
p924
I756
sV \u0a9c 
p925
I617
sV\u0aa3\u0ac0 
p926
I690
sV \u0a95\u0acd
p927
I529
sV\u0aa4\u0abe\u0aa8
p928
I511
sVe
I748
sV\u0ab3\u0abe
p929
I605
sV\u0aa4\u0ac7\u0aa8
p930
I266
sV\u0ac1\u0aa6
p931
I651
sV\u0aa4\u0ac7\u0aae
p932
I200
sV\u0ab3\u0ab5
p933
I800
sV\u0aee
I811
sV\u0ac1\u0aa8
p934
I522
sV\u0ab0\u0ab8
p935
I567
s.