(dp1
V\u0ca1\u0cc1\u0ca4
p2
I842
sV\u0ca6\u0cb0\u0cc6
p3
I418
sV\u0ca6\u0cb0\u0cc1
p4
I321
sV\u0ccd\u0ca6\u0cc1
p5
I659
sV\u0ca6\u0cb0\u0ccd
p6
I901
sV \u0cb8\u0c82
p7
I204
sV\u0cb8 
p8
I954
sV\u0ca3\u0ccd\u0ca3
p9
I814
sV\u0c97\u0cb0
p10
I774
sV\u0cb0\u0cbf
p11
I55
sV \u0caa\u0ccd
p12
I127
sV\u0ca5\u0cbf
p13
I887
sV\u0ca5\u0cbe
p14
I821
sV\u0cc0\u0caf 
p15
I790
sV\u0ca6\u0ccd\u0ca7
p16
I569
sV\u0ca5\u0cb5
p17
I624
sV\u0cb5\u0ccd\u0caf
p18
I407
sV \u0caa\u0cc1
p19
I911
sV\u0ca1\u0cc6\u0caf
p20
I853
sV\u0cae\u0ca8
p21
I519
sV 
I0
sV\u0ca3
I70
sV \u0cb8\u0cae
p22
I544
sV\u0cc1\u0cb0
p23
I353
sV\u0cb0\u0ca6 
p24
I590
sV\u0ca8 \u0cb8
p25
I888
sV\u0cae\u0ca4
p26
I148
sV\u0cbf\u0cb6
p27
I549
sV\u0cb3
I19
sV\u0cb0\u0ca1
p28
I797
sV \u0cb8\u0cbf
p29
I822
sV \u0cb8\u0cbe
p30
I295
sV\u0cae\u0cbe
p31
I102
sV\u0cae\u0cbf
p32
I320
sV\u0cae\u0cb0
p33
I629
sV\u0cb0\u0ca6
p34
I221
sV\u0ccc
I547
sV \u0cb8\u0cb0
p35
I761
sV\u0c82\u0c97\u0ccd
p36
I591
sV\u0cc7\u0cb5
p37
I610
sV\u0c97\u0cb3\u0cc1
p38
I173
sV  
p39
I339
sV\u0cbe\u0cb3
p40
I896
sV\u0cae\u0ccd
p41
I273
sV \u0cb8\u0ccd
p42
I252
sV\u0cb0\u0ccd\u0cb5
p43
I657
sV\u0cc7\u0cb0\u0cbf
p44
I830
sV\u0cae\u0cc1
p45
I267
sV\u0cae\u0cc2
p46
I423
sV\u0cc7 
p47
I248
sV \u0cb8\u0cc7
p48
I692
sV\u0cae\u0cc6
p49
I469
sV\u0cae\u0cc7
p50
I450
sV\u0ccd\u0cb8\u0ccd
p51
I436
sV\u0caf\u0cb5\u0cbe
p52
I675
sV\u0c95 
p53
I172
sV\u0cb8\u0ccd\u0cb5
p54
I646
sV\u0cb5\u0ccd
p55
I341
sV \u0caa\u0cbe
p56
I722
sV\u0cb8\u0cc1
p57
I153
sV\u0ca5\u0cc6
p58
I811
sV \u0caa\u0cb0
p59
I452
sV\u0caf 
p60
I92
sV\u0cbf\u0c95\u0cca
p61
I526
sV\u0caf\u0cb2\u0ccd
p62
I305
sV\u0ca8\u0ccd\u0ca8
p63
I47
sV\u0cbf\u0c95\u0ccd
p64
I531
sV\u0cbe\u0ca8\u0ccd
p65
I503
sV\u0ca6\u0cb0\u0cbf
p66
I775
sV \u0caa\u0ca1
p67
I968
sV\u0cbf\u0c95\u0cc6
p68
I424
sV \u0c86\u0cb0
p69
I813
sV\u0cc6\u0c9a\u0ccd
p70
I516
sV\u0cbf \u0c95
p71
I368
sV\u0c88
I232
sV\u0ca8\u0cb2\u0ccd
p72
I432
sV\u0cc6\u0caf 
p73
I290
sV\u0ca6\u0c95\u0ccd
p74
I759
sV\u0cbe 
p75
I196
sV\u0c98
I836
sV\u0c8e\u0cb2
p76
I923
sV \u0c88 
p77
I498
sV\u0cbf\u0cb5\u0cc6
p78
I791
sV\u0ca6\u0cb5
p79
I574
sV\u0c9f\u0cbf
p80
I231
sV\u0c9f\u0cbe
p81
I869
sV\u0cbe\u0ca3
p82
I415
sV\u0cbf\u0ca8\u0ccd
p83
I686
sV\u0ca8
I7
sV\u0c8e\u0c82
p84
I279
sV\u0c9f\u0cb0
p85
I762
sV\u0cb8\u0ccd\u0c9f
p86
I539
sV\u0c9a\u0cbf\u0ca4
p87
I625
sV\u0cac\u0cb9\u0cc1
p88
I541
sV\u0ca4\u0cb5\u0cc6
p89
I789
sV\u0cb8
I14
sV\u0ccd\u0caf 
p90
I398
sV\u0cbf\u0cb8
p91
I64
sV\u0cbf\u0cb7
p92
I532
sV\u0cc8
I180
sV\u0cbf\u0cb5
p93
I285
sV\u0cbf\u0cb2
p94
I268
sV\u0ca4 
p95
I226
sV\u0cbf\u0cb0
p96
I130
sV\u0cbf\u0caf
p97
I76
sV\u0cbf\u0cae
p98
I403
sV\u0c9f\u0ccd
p99
I116
sV\u0caf\u0c82
p100
I717
sV\u0cbf\u0caa
p101
I777
sV\u0cbf\u0ca8
p102
I122
sV\u0cbf\u0ca7
p103
I815
sV\u0cbf\u0ca6
p104
I61
sV\u0cbf\u0ca4
p105
I108
sV\u0c9f\u0cc1
p106
I382
sV\u0cbf\u0c9f
p107
I662
sV\u0ca6\u0cc1\u000a
p108
I655
sV\u0cbf\u0cb2\u0ccd
p109
I383
sV\u0c85\u0ca8
p110
I392
sV \u0c95\u0ccd
p111
I449
sV\u0cbf\u0c97
p112
I99
sV\u0ce8
I758
sV\u0cbf\u0c95
p113
I91
sV\u0c85\u0ca6
p114
I482
sV\u0c85\u0cb0
p115
I949
sV\u0c85\u0cb5
p116
I206
sV\u0cbf\u0c82
p117
I132
sV\u0c85\u0cb2
p118
I825
sV \u0cb5\u0cbe
p119
I708
sV \u0cb5\u0cbf
p120
I169
sV \u0c95\u0cca
p121
I709
sV\u200c 
p122
I247
sV\u0c97\u0cb3 
p123
I229
sV\u0c89
I214
sV \u0cb5\u0cb0
p124
I600
sV\u0caf\u0cb0
p125
I773
sV\u0cb2\u0cbf\u0ca8
p126
I744
sV\u0cb7\u0cbf
p127
I688
sV\u0ccb\u0cb0
p128
I812
sV\u0ca4\u0cc0
p129
I885
sV\u0cb2\u0cbf\u0caf
p130
I769
sV\u0ca8\u0cc6 
p131
I852
sV\u0ca4\u0cc1
p132
I80
sV\u0c95\u0cc6\u0cb2
p133
I649
sV \u0cae\u0cca
p134
I784
sV\u0ca8\u0cbf\u0cb0
p135
I451
sV \u0cae\u0cc1
p136
I390
sV \u0cae\u0cc2
p137
I535
sV\u0c95\u0cbe\u0cb2
p138
I712
sV \u0cae\u0cc7
p139
I586
sV\u0ca4\u0cc6 
p140
I446
sV\u0ca4\u0cae\u0ccd
p141
I999
sV\u0cbf\u0cb8\u0cbf
p142
I155
sV\u0ccb\u0c97
p143
I562
sV\u0cae\u0cbe\u0ca8
p144
I468
sV\u0cb9
I26
sV\u0ca8\u0cbf\u0caf
p145
I745
sV\u0cc1\u000a\u0c87
p146
I919
sV\u0cae\u0cbe\u0ca1
p147
I308
sV\u0cbf\u0cb8\u0ccd
p148
I725
sV\u0ccd\u0cb2\u0cbf
p149
I60
sV\u0c97\u0cc2 
p150
I560
sV\u0cca\u0cb3\u0ccd
p151
I728
sV\u0cb0\u0cbf\u0c82
p152
I650
sV \u0cae\u0ca4
p153
I156
sV\u0ca6\u0ccd\u0cb0
p154
I640
sV\u0c9a\u0cc1
p155
I764
sV\u0ca6\u0ccd\u0caf
p156
I510
sV\u200c\u0ca8
p157
I630
sV\u0caf\u0cbf\u0c82
p158
I986
sV \u0cae\u0cbe
p159
I186
sV\u0ca6\u0ccd\u0ca6
p160
I147
sV\u0cb0\u0cbf\u0c97
p161
I472
sV\u0ccd\u0cb2\u0ca6
p162
I998
sV\u0cb0\u0cbf\u0c95
p163
I489
sV \u0c9c\u0ca8
p164
I714
sV\u0cc1\u0cb5\u0cc1
p165
I322
sV\u0cb0\u0cbf\u0caf
p166
I375
sV\u0cb0\u0ccd\u0cb7
p167
I839
sV\u0ca1\u0cbf\u0caf
p168
I947
sV \u0cb5\u0ccd
p169
I565
sV\u0cb0\u0cbf\u0cb8
p170
I326
sV\u0cb0\u0ccd\u0cae
p171
I631
sV\u0cb0\u0ccd\u0caf
p172
I577
sV\u0cc1 \u0caa
p173
I259
sV\u0c9a\u0ccd
p174
I329
sV\u0cc1 \u0ca8
p175
I301
sV\u0cc1 \u0cae
p176
I187
sV\u0cb5\u0cbf\u0ca6
p177
I748
sV\u0cc1 \u0cac
p178
I302
sV\u0cbf \u0cb8
p179
I364
sV\u0ccd\u0ca4\u0cc1
p180
I121
sV\u0cc1 \u0ca6
p181
I786
sV\u0cc3
I310
sV\u0cc1 \u0ca4
p182
I362
sV\u0c8e
I135
sV\u0cc1 \u0cb8
p183
I183
sV\u0cc1 \u0cb9
p184
I223
sV\u0ccd\u0c9f\u0cbf
p185
I442
sV\u0cb5\u0cbf\u0cb6
p186
I818
sV\u0cc1 \u0cb0
p187
I652
sV\u0cbf\u0ca8 
p188
I244
sV\u0cc1 \u0cb5
p189
I343
sV\u0cc7\u0cb2\u0cc6
p190
I925
sV\u0cc0\u0caf
p191
I595
sV\u0cc1 \u0c8e
p192
I672
sV\u0caf\u0c95\u0ccd
p193
I771
sV\u0cb3\u0cbf\u0c97
p194
I491
sV\u0ca1\u0cb2
p195
I715
sV\u0cb9\u0cc1\u0ca6
p196
I674
sV\u0cb9\u0cbe\u0c97
p197
I511
sV\u0cc1 \u0c86
p198
I533
sV\u0cc1 \u0c87
p199
I523
sV\u0cc1 \u0c85
p200
I227
sV\u0cbe\u0cb8\u0ccd
p201
I731
sV\u0cc1 \u0c9c
p202
I883
sV\u0c9f\u0cc1 
p203
I677
sV\u0cc1 \u0c92
p204
I713
sV\u0c82\u0ca6\u0ccd
p205
I905
sV \u0cb8\u0cc1
p206
I638
sV\u0cb6\u0ccd\u0cb0
p207
I981
sV\u0cc1 \u0c95
p208
I203
sV\u0cc6 \u0c95
p209
I524
sV\u0c96\u0ccd\u0caf
p210
I809
sV\u0ca4\u0cbe\u0cb0
p211
I737
sV \u0cac\u0cc6
p212
I601
sV\u0cb8\u0ccd 
p213
I360
sV\u0ca4\u0cc1\u000a
p214
I288
sV\u0cc6 \u0c85
p215
I465
sV\u0ccd\u0cae 
p216
I831
sV\u0cc6 \u0c87
p217
I751
sV\u0cc1 \u0c89
p218
I873
sV\u0ccd\u0ca8 
p219
I780
sV\u0cc6 \u0c8e
p220
I881
sV\u0cbf \u0cae
p221
I350
sV\u0c95\u0cca\u0c82
p222
I605
sV\u0cb8\u0ccd\u200c
p223
I711
sV\u0ca4\u0cc1 
p224
I141
sV\u0cb8\u0cbf 
p225
I653
sV\u0ccd\u0c9f\u0ccd
p226
I471
sV\u0ccd\u0c9f\u0cc1
p227
I598
sV\u0ccd\u0ca4\u0ca6
p228
I249
sV\u0cc6 \u0cb8
p229
I373
sV\u0cb5\u0cb8\u0ccd
p230
I884
sV\u0c95\u0cca\u0cb3
p231
I832
sV\u0cc6 \u0ca4
p232
I870
sV\u0c9a\u0cbe
p233
I719
sV\u0c9a\u0cbf
p234
I246
sV\u0ccd\u0ca4\u0cbe
p235
I430
sV\u0ccd\u0ca4\u0cbf
p236
I205
sV\u0cab\u0ccd
p237
I673
sV\u0cc6 \u0cac
p238
I615
sV\u0ccd\u0ca4\u0cb0
p239
I995
sV\u0cc6 \u0cae
p240
I317
sV\u0cc6 \u0ca8
p241
I691
sV\u0ccd\u0ca4\u0cb5
p242
I607
sV\u0c95\u0ccd\u0c95
p243
I189
sV\u0cb0\u0c95\u0ccd
p244
I876
sV \u0cb9\u0cca
p245
I357
sV\u0ca4\u0ccd\u0ca4
p246
I44
sV\u0c82\u0ca1\u0cbf
p247
I618
sV\u0cc1\u000a
p248
I109
sV\u200c
I114
sV \u0cb9\u0cc6
p249
I359
sV\u0ca4\u0ccd\u0caf
p250
I422
sV\u0ca4\u0ccd\u0cb0
p251
I191
sV\u0caf \u0c95
p252
I978
sV\u0ca8\u0cc6\u0c97
p253
I961
sV\u0cae
I18
sV\u0c82\u0ca7
p254
I867
sV\u0c9f
I29
sV\u0cc1 
p255
I16
sV\u0c95\u0ccd\u0cb7
p256
I289
sV\u0c95\u0ccd\u0cb0
p257
I421
sV\u200c\u0c97
p258
I933
sV\u0caf \u0cae
p259
I736
sV\u0ca1\u0cbf 
p260
I991
sV\u0caf
I15
sV\u0c95\u0ccd\u0ca4
p261
I550
sV\u0cb0 
p262
I95
sV\u0cb5\u0c82
p263
I909
sV\u0caf \u0cb8
p264
I796
sV\u0cbf
I2
sV\u0cb8\u0ccd
p265
I56
sV\u0ca3 
p266
I413
sV\u0cc6\u0c97
p267
I144
sV\u0cc6\u0c9a
p268
I509
sV\u0c85\u0c82
p269
I495
sV\u0cc6\u0c9f
p270
I917
sV\u0cc6\u0c82
p271
I292
sV\u0c82\u0ca6\u0cb0
p272
I596
sV\u0c82\u0ca6\u0cbf
p273
I307
sV\u0cae\u0cca\u0ca6
p274
I908
sV\u0cb2\u0ccd\u0cb2
p275
I39
sV\u0cc6\u0cb2
p276
I312
sV\u0cc6\u0cb3
p277
I781
sV\u0cc6\u0cb8
p278
I453
sV\u0cef
I752
sV\u0cc1 \u0c97
p279
I682
sV\u0caa\u0cc2
p280
I877
sV \u0cb9\u0cbe
p281
I344
sV \u0cb9\u0cbf
p282
I768
sV\u0cc6\u0ca8
p283
I718
sV\u0cbe\u0ca4\u0ccd
p284
I581
sV\u0cbe
I6
sV\u0cc6\u0caf
p285
I83
sV\u0cca\u0cb0
p286
I670
sV\u0c95\u0ccd 
p287
I833
sV\u0c97\u0cbf 
p288
I154
sV\u0ca8\u0ca1\u0cc6
p289
I960
sV\u0cb0\u0cc1 
p290
I160
sV\u0ccd \u0cb8
p291
I628
sV\u0cae\u0cc7\u0cb2
p292
I633
sV\u000a\u0c86
p293
I557
sV \u0c95\u0c82
p294
I863
sV\u0c86\u0cb0
p295
I707
sV\u0c97\u0ca6
p296
I683
sV \u0c95\u0cbe
p297
I220
sV\u0ca4
I8
sV\u0ccd\u0cb0 
p298
I648
sV\u0ca4\u0cbf\u0ca6
p299
I735
sV\u0cb7\u0ccd
p300
I210
sV \u0c95\u0cb0
p301
I893
sV\u0cbe\u0ca4
p302
I327
sV\u0ca6\u0cc1
p303
I68
sV\u0ca8\u0ccd\u0caf
p304
I529
sV\u0c97\u0cb3
p305
I37
sV\u0ca6\u0cc6
p306
I107
sV\u0ca6\u0cc7
p307
I236
sV\u0c97\u0cbf
p308
I67
sV\u0c97\u0cbe
p309
I337
sV\u0cb0\u0cc1\u000a
p310
I314
sV\u0cac\u0ccd\u0cac
p311
I892
sV\u0ca6\u0ccd
p312
I81
sV\u0cc6\u0caf\u0cc1
p313
I545
sV\u0ca6\u0cb0
p314
I98
sV\u0c97\u0cc6
p315
I101
sV\u0ca6\u0cb2
p316
I139
sV\u0c9f\u0ccd\u0cb0
p317
I641
sV\u0cb7\u0ca3
p318
I900
sV\u0c97\u0cc2
p319
I492
sV\u0c97\u0cc1
p320
I181
sV\u0c95\u0cc6\u0caf
p321
I690
sV\u0c97\u0ccd
p322
I200
sV \u0c8e\u0c82
p323
I296
sV\u0c97\u0cca
p324
I464
sV\u0ca6\u0cbe
p325
I175
sV\u0ca6\u0cbf
p326
I118
sV \u0c87\u0ca6
p327
I441
sV\u0cbf \u0c85
p328
I395
sV\u0cbf \u0c86
p329
I942
sV\u0cbf \u0c87
p330
I840
sV\u0cbf\u0caf 
p331
I349
sV\u0cb0\u0cbe\u0c9c
p332
I668
sV\u0cc0\u0c95
p333
I772
sV\u0ca6\u0ca8
p334
I416
sV\u0cca\u0ca6\u0cb2
p335
I899
sV \u0c95\u0cc6
p336
I522
sV\u0cb3\u0ca8\u0ccd
p337
I213
sV\u0cbf \u0cb5
p338
I632
sV\u0cc0\u0ca1
p339
I678
sV\u0ca6\u0c95
p340
I622
sV\u0cc0\u0ca4
p341
I704
sV\u0cbf\u0ca4 
p342
I948
sV\u0cc0\u0ca8
p343
I939
sV\u0c9f\u0ccd\u0c9f
p344
I243
sV\u0cbf \u0cb9
p345
I494
sV\u0c87\u0ca6\u0cc1
p346
I705
sV\u0ca1\u0cbf\u0cb8
p347
I741
sV\u0cbf \u0ca4
p348
I799
sV\u0ca1\u0cbf\u0ca6
p349
I487
sV\u0cc0\u0cb0
p350
I573
sV\u0cbe\u0ca1\u0cc1
p351
I666
sV\u0ccd \u0ca8
p352
I676
sV\u0cc0\u0cb5
p353
I890
sV\u0cbf \u0cac
p354
I485
sV\u0caa\u0ca8
p355
I974
sV\u0ca6\u0cc1 
p356
I97
sV\u0cbf \u0ca8
p357
I497
sV\u0cbf \u0caa
p358
I443
sV\u0cb2\u0c95
p359
I611
sV\u0ccd\u0c95\u0cbe
p360
I914
sV\u0c85
I43
sV\u0ccd 
p361
I50
sV\u0cbe\u0ca7
p362
I680
sV\u0cb0\u0ccd\u200c
p363
I882
sV\u0c95
I13
sV\u0ca4\u0cbf\u0caf
p364
I379
sV\u0caf\u0ccb
p365
I553
sV\u0cc3\u0ca4
p366
I617
sV\u0caf\u0cc1 
p367
I643
sV \u0ce7
p368
I808
sV\u0cb2\u0cb5
p369
I376
sV\u0cb9\u0cca\u0c82
p370
I710
sV\u0ca5
I145
sV\u0ca1\u0cc1\u0cb5
p371
I594
sV\u0ccd\u200c
p372
I128
sV\u0cb2\u0cbe
p373
I167
sV\u0cb2\u0cbf
p374
I40
sV\u0cc2\u0cb0\u0ccd
p375
I894
sV\u0ca4\u0cbf\u0c97
p376
I788
sV\u0c85\u0cb5\u0cb0
p377
I367
sV\u0cb2\u0ca6
p378
I552
sV\u0cb5
I11
sV\u0ca6\u0c82
p379
I879
sV\u0cb3\u0cbf\u0cb8
p380
I826
sV\u0cc6 \u0cb5
p381
I920
sV\u0c82\u0ca4 
p382
I805
sV\u0cb2\u0cc6
p383
I263
sV\u0ccd\u0c95\u0cc6
p384
I319
sV\u0caf\u0cc1
p385
I201
sV\u0cb2\u0cc2
p386
I922
sV\u0cb2\u0ccd
p387
I25
sV\u0cbf\u0cb0\u0cc1
p388
I245
sV\u0cbf\u0cb0\u0ccd
p389
I536
sV\u0cb8\u0cb9
p390
I910
sV\u0cbe\u0ca6 
p391
I298
sV\u0cb3 
p392
I190
sV\u0cb5\u0cc1\u0ca6
p393
I311
sV\u0c97\u0cc1\u0ca4
p394
I457
sV\u0cac\u0c82
p395
I488
sV\u0cc6 \u0cb9
p396
I507
sV\u0ccd\u0cb5\u0cbe
p397
I987
sV\u0ca3\u0ca6
p398
I765
sV\u0c8e\u0cb0
p399
I941
sV\u0cb0\u0cb5\u0cbe
p400
I703
sV\u0cbf\u0ca6\u0cc6
p401
I234
sV\u0cc6\u0cb2\u0cb5
p402
I996
sV\u0caa\u0ca1\u0cc6
p403
I946
sV\u0c9a
I72
sV\u0c95\u0cb5
p404
I635
sV\u0ca3\u0cb5
p405
I770
sV\u0cbf\u0ca6\u0ccd
p406
I157
sV \u0ca8\u0cc0
p407
I584
sV\u0caa
I20
sV\u0cca\u0c82\u0ca6
p408
I315
sV\u0cac\u0cb2
p409
I951
sV\u0cac\u0cb3
p410
I620
sV\u0c92\u0c82
p411
I352
sV\u0cac\u0cbe
p412
I568
sV\u0cac\u0cbf
p413
I397
sV\u0c88 
p414
I291
sV\u0cac\u0cb9
p415
I445
sV\u0cac\u0cc6
p416
I478
sV\u0cac\u0cc7
p417
I476
sV\u0ccd \u0c95
p418
I766
sV\u0cb5\u0cb0\u0ccd
p419
I448
sV\u0ca4\u0cb5\u0cbe
p420
I967
sV\u0cb5\u0cbe\u0ca6
p421
I414
sV\u0cac\u0cc1
p422
I929
sV\u0cb9 
p423
I848
sV\u0cac\u0ccd
p424
I303
sV\u0cb5\u0cb0\u0cc1
p425
I409
sV\u0cb5\u0cbe\u0cb0
p426
I953
sV \u0c92\u0c82
p427
I384
sV\u0ca8 
p428
I106
sV\u0cc1\u0ca6\u0ccd
p429
I810
sV\u0cbf\u0ca6\u0cb0
p430
I496
sV\u0cc2 
p431
I159
sV\u0ca3\u0ccd
p432
I644
sV \u0ca4\u0ca8
p433
I983
sV\u0ca6\u0cc7\u0cb6
p434
I515
sV\u0cc1\u0ca6\u0cc1
p435
I377
sV\u0cc6\u0cb2\u0ccd
p436
I938
sV\u0cb8\u0cbe\u0cae
p437
I817
sV\u0cbe\u0cb2\u0ccd
p438
I891
sV\u0cb0\u0cb2\u0ccd
p439
I431
sV\u0cb2\u0cc7
p440
I664
sV\u0cb5\u0cbe\u0c97
p441
I163
sV\u0c9c\u0cc0
p442
I975
sV\u0cc6 \u0caa
p443
I695
sV\u0c89\u0ca4
p444
I776
sV\u0cb2\u0cc1
p445
I250
sV\u0cbe\u0cb8
p446
I269
sV\u0cbe\u0cb9
p447
I530
sV\u0caf\u0cc1\u0ca4
p448
I895
sV\u0cc6\u0caf\u0cb2
p449
I483
sV\u0cbe\u0cb0
p450
I54
sV\u0cbe\u0cb2
p451
I194
sV\u0c8e\u0c82\u0cac
p452
I637
sV\u0cc1\u0c97\u0cb3
p453
I330
sV\u0cbe\u0cb5
p454
I272
sV\u0ccd\u0caf\u0c95
p455
I746
sV\u0cbe\u0cb7
p456
I739
sV\u0cbe\u0ca8
p457
I140
sV\u0cbe\u0caa
p458
I558
sV\u0cbe\u0cae
p459
I309
sV\u0cbe\u0caf
p460
I195
sV\u0cbf\u0c82\u0ca6
p461
I176
sV\u0cbe\u0ca1
p462
I222
sV\u0cb5\u0cc7
p463
I572
sV\u0cb5\u0cc6
p464
I209
sV\u0cb5\u0cc1
p465
I125
sV\u0cbe\u0ca6
p466
I146
sV\u0cb0\u0cc1\u0cb5
p467
I294
sV\u0ca4\u0ccd
p468
I22
sV\u0cbe\u0c9c
p469
I462
sV\u0ccd\u0caf\u0cbe
p470
I179
sV\u0cbe\u0c9f
p471
I604
sV\u0ca4\u0cc6
p472
I197
sV\u0cbf\u0c82\u0c97
p473
I787
sV\u0cab
I284
sV\u0cbe\u0c95
p474
I428
sV\u0ccd\u0caf\u0cb5
p475
I370
sV\u0cbe\u0c97
p476
I46
sV\u0c95\u0cbe\u0cb0
p477
I253
sV\u0c95\u0cb0
p478
I255
sV\u0ca4\u0cb0 
p479
I521
sV\u0cae\u0ccd\u0cae
p480
I555
sV\u0cbe\u0c82
p481
I270
sV\u0ccd\u0caf\u0ca6
p482
I872
sV\u0c9f 
p483
I861
sV\u0ca4\u0cae
p484
I538
sV\u0cb0\u0cc6\u000a
p485
I561
sV\u0ca4\u0ca8
p486
I435
sV\u0ca4\u0ca6
p487
I193
sV\u0ca8\u0c82\u0ca4
p488
I734
sV\u0ccb
I87
sV\u0cb2\u0cb5\u0cc1
p489
I944
sV\u0cb3\u0cb2\u0ccd
p490
I342
sV\u0ca4\u0cbe
p491
I233
sV\u0ca4\u0cbf
p492
I86
sV\u0ccd \u0c85
p493
I756
sV\u0c8f
I851
sV\u0caa\u0cb0\u0cbf
p494
I634
sV\u0ca4\u0cb5
p495
I355
sV\u0ca4\u0cb0
p496
I242
sV\u0cbf 
p497
I21
sV\u0cb5\u0cbf
p498
I89
sV\u0cb5\u0cbe
p499
I69
sV\u0cb5\u0cb8
p500
I723
sV\u0ca4\u0c82
p501
I740
sV\u0cb5\u0cb0
p502
I115
sV\u0c95\u0cb2
p503
I621
sV\u0cb5\u0cb2
p504
I783
sV\u0ccd\u0ca6\u0cb0
p505
I564
sV\u0cb5\u0ca8
p506
I162
sV\u0ccd \u0cae
p507
I551
sV\u0caf \u0caa
p508
I935
sV\u0ccd \u0caa
p509
I856
sV\u0ccd\u0ca6\u0cbe
p510
I585
sV\u0cb5\u0cc6\u000a
p511
I466
sV\u0cb8\u0cae
p512
I459
sV\u0ca1\u0cc1 
p513
I679
sV\u0caf\u0cc6
p514
I665
sV\u0caf\u0c82\u0ca4
p515
I945
sV\u0cb8\u0cb2\u0cc1
p516
I906
sV\u0caf\u0cc2
p517
I647
sV\u0ca6\u0cb2\u0ccd
p518
I168
sV \u0ca1
p519
I689
sV\u0cb8\u0cbe
p520
I198
sV\u0cb8\u0cbf
p521
I93
sV\u0cb8\u0cb2
p522
I275
sV\u0cae\u0ca4\u0ccd
p523
I152
sV\u0cb8\u0cb0
p524
I336
sV\u0cbf\u0c95 
p525
I369
sV\u0cb9\u0cc7
p526
I989
sV \u0ca6\u0cbf
p527
I988
sV\u0ca6\u0cca
p528
I823
sV\u0cb8\u0c82
p529
I178
sV\u0ccd\u0ca8\u0cc1
p530
I65
sV\u0c95\u0ccd
p531
I59
sV\u0cb0
I3
sV\u0ccd\u0c9a\u0cc1
p532
I957
sV\u0c95\u0ccb
p533
I816
sV\u0c95\u0cca
p534
I230
sV\u0c92\u0c82\u0ca6
p535
I356
sV\u0c95\u0cc7
p536
I755
sV\u0c95\u0cc6
p537
I123
sV\u0c95\u0cc1
p538
I358
sV\u0ca8\u0c97\u0cb3
p539
I871
sV\u0c95\u0cc3
p540
I834
sV\u0c95\u0cc2
p541
I747
sV\u0cc0
I78
sV\u0c95\u0cbf
p542
I348
sV\u0c95\u0cbe
p543
I111
sV \u0ca6
p544
I165
sV \u0ca4
p545
I120
sV\u0cc7\u0cb6
p546
I380
sV \u0caa
p547
I51
sV \u0cab
p548
I658
sV \u0ca8
p549
I71
sV\u0ccd\u0c9a\u0cbf
p550
I907
sV \u0cae
p551
I32
sV\u0c82\u0ca6\u0cc1
p552
I164
sV \u0cac
p553
I79
sV \u0cad
p554
I297
sV \u0cb2
p555
I410
sV \u0cb0
p556
I133
sV \u0cb6
p557
I254
sV\u0c95\u0ca8
p558
I841
sV \u0cb5
p559
I77
sV\u0caf\u0c97
p560
I687
sV \u0ca8\u0c82
p561
I928
sV \u0cb8
p562
I34
sV \u0cb9
p563
I66
sV\u0c95\u0ca1
p564
I982
sV\u0ca8\u0ccd\u200c
p565
I606
sV\u0c95\u0c9f
p566
I902
sV \u0c86
p567
I131
sV \u0c87
p568
I142
sV\u0caf\u0ca8
p569
I212
sV\u0cb8\u0cc2
p570
I950
sV\u0caf\u0ca6
p571
I402
sV \u0c88
p572
I381
sV \u0c89
p573
I235
sV \u0c8e
p574
I149
sV\u0cb8\u0cc7
p575
I619
sV\u0cca
I58
sV\u0c86\u0ca6
p576
I587
sV\u0caf\u0cbf
p577
I238
sV\u0caf\u0cbe
p578
I94
sV\u0cb8\u0cb2\u0cbe
p579
I556
sV \u0c97
p580
I161
sV \u0c95
p581
I41
sV \u0c9a
p582
I271
sV\u0caf\u0cb5
p583
I262
sV\u0ca8\u0ccd 
p584
I293
sV\u0caf\u0cb2
p585
I260
sV \u0c9c
p586
I182
sV\u0c95\u0c82
p587
I757
sV \u0c89\u0ca4
p588
I844
sV\u0cbe\u0cb0 
p589
I698
sV\u0cae\u0cca
p590
I616
sV\u0cbe\u0c97\u0cc1
p591
I325
sV\u0cbe\u0c97\u0cc2
p592
I793
sV\u0c97\u0cb3\u0ca8
p593
I218
sV\u0caf\u0cbe\u0c97
p594
I505
sV\u0cbe\u0cae\u0cbe
p595
I980
sV\u0c82
I17
sV\u0ca6\u0cc6\u000a
p596
I151
sV\u0c9f\u0cc6
p597
I699
sV\u0caf\u0c95
p598
I484
sV\u0ca1\u0cbf
p599
I129
sV\u0cb8\u0cbf\u0ca6
p600
I225
sV\u0caf\u0ca8\u0ccd
p601
I261
sV \u0ca8\u0cbf
p602
I277
sV\u0caf\u0cbe\u0cb0
p603
I973
sV\u0cae\u0cc1\u0c82
p604
I847
sV\u0ccd\u0cb0\u0ca4
p605
I636
sV\u0cae\u0cc1\u0c96
p606
I753
sV\u0cbf\u0ca1
p607
I669
sV\u0ccd\u0cac
p608
I589
sV\u0caf\u0cbe\u0ca6
p609
I997
sV\u0c85\u0ca5
p610
I720
sV\u0ca6\u0cc6 
p611
I396
sV\u0cc1
I4
sV\u0ccd\u0ca6 
p612
I918
sV \u0c95\u0cc1
p613
I865
sV \u0c85\u0ca8
p614
I454
sV\u0cb8\u0ccd\u0ca4
p615
I346
sV\u0cb8\u0ccd\u0ca5
p616
I333
sV \u0c85\u0ca6
p617
I623
sV\u0c97\u0cca\u0c82
p618
I972
sV\u0cbf\u0c9c
p619
I956
sV\u0c87\u0c82
p620
I827
sV\u0cbe\u0cb0\u0ca4
p621
I994
sV \u0c85\u0cb5
p622
I258
sV\u0cb8\u0ccd\u0c95
p623
I963
sV\u0c82\u0cac 
p624
I795
sV\u0cca\u0c82
p625
I177
sV \u0ca8\u0cbe
p626
I671
sV\u0ca1\u0cc1
p627
I185
sV\u0c87\u0cb5
p628
I645
sV\u0cb7\u0ccd\u0c9f
p629
I340
sV\u0ca1\u0cc6
p630
I278
sV \u0c85
p631
I53
sV\u0ca1\u0ccd
p632
I286
sV \u0c85\u0c82
p633
I570
sV\u0cca\u0cb3
p634
I404
sV\u0c87\u0ca6
p635
I265
sV\u0c92
I184
sV\u0c85\u0ca4
p636
I904
sV\u0ca3\u0cbf
p637
I425
sV\u0cca\u0ca6
p638
I843
sV\u0cbe\u0c97\u0cbf
p639
I88
sV\u0cca\u0ca1
p640
I681
sV\u0cc1\u0cb5 
p641
I188
sV\u0cb3\u0cc1 
p642
I174
sV\u0ccd\u0cb3
p643
I506
sV\u0c86
I103
sV\u0c85\u0ca5\u0cb5
p644
I733
sV\u0cb8\u0cc6
p645
I727
sV \u0cb8\u0cb9
p646
I969
sV\u0ccd\u0cb7\u0cbf
p647
I976
sV\u0cbf\u0c97\u0cb3
p648
I299
sV \u0c8f
p649
I971
sV\u0c86\u0ca6\u0cb0
p650
I932
sV\u0ca8\u0cc6\u0caf
p651
I499
sV\u0c96
I264
sV\u0cb2\u0cbf 
p652
I74
sV\u0ca4\u0cbf 
p653
I429
sV\u0cb0\u0ca4\u0cbf
p654
I855
sV \u0c92
p655
I199
sV\u0c82\u0c9f
p656
I527
sV\u0ccd\u0cb0\u0cc0
p657
I661
sV\u0ca6
I5
sV \u0cac\u0ccd
p658
I854
sV\u0c87\u0ca4
p659
I936
sV\u0cbe\u0ca1\u0cbf
p660
I548
sV\u0cc6\u0caf\u0ca8
p661
I525
sV\u0cb3\u0cc6
p662
I434
sV\u0caa\u0ccd
p663
I82
sV\u0c82\u0c9a
p664
I990
sV\u0cb6
I73
sV\u0caa\u0cc1
p665
I438
sV\u0caf\u0c97\u0cb3
p666
I792
sV\u0cb0\u0cc6\u0caf
p667
I801
sV\u0caa\u0cbe
p668
I306
sV\u0caa\u0cbf
p669
I467
sV\u0cc6
I10
sV\u0ca8\u0cc1 
p670
I63
sV\u0caa\u0cb0
p671
I304
sV\u0caf\u0ca6 
p672
I878
sV\u0cb8\u0cc1\u0cb5
p673
I393
sV \u0c9a\u0cbf
p674
I694
sV\u0cb2\u0cc6 
p675
I656
sV \u0cac\u0cb3
p676
I696
sV \u0c9f
p677
I763
sV \u0cac\u0cb0
p678
I912
sV \u0cac\u0cbf
p679
I803
sV \u0cac\u0cbe
p680
I940
sV\u0caa\u0ca6
p681
I660
sV\u0caa\u0ca1
p682
I502
sV\u0cbe\u0cb0\u0ccd
p683
I228
sV\u0cb0\u0cc2 
p684
I943
sV\u0caa\u0c9f
p685
I880
sV \u0cac\u0c82
p686
I937
sV\u0cb2\u0cc1 
p687
I332
sV\u0ce6
I427
sV\u0cb5\u0ca8\u0ccd
p688
I217
sV\u0cb0\u0cbf 
p689
I504
sV\u0cb5 
p690
I158
sV\u0c82\u0ca4\u0ccd
p691
I837
sV\u0cb0\u0ccd 
p692
I385
sV\u0ccd\u0cb2\u000a
p693
I984
sV\u0c97\u0cc1\u0cb5
p694
I875
sV\u0cbf\u0c97\u0cc6
p695
I192
sV\u0cc7\u0c95
p696
I437
sV\u0cbf\u0ca4\u0ccd
p697
I280
sV\u0c87
I96
sV\u0cbf\u0ca4\u0cc1
p698
I324
sV\u0c97\u0cbf\u0ca6
p699
I283
sV\u0cc6\u000a\u0c87
p700
I627
sV\u0ca6\u0cbf\u0ca6
p701
I750
sV\u0cc6\u000a\u0c85
p702
I903
sV\u0ccd\u0cb0\u0c97
p703
I964
sV\u0ccd\u0cb0\u0c95
p704
I807
sV\u0cb0\u0cc1\u0ca4
p705
I475
sV\u0c97
I12
sV\u0c9c\u0ccd
p706
I411
sV\u0c97\u0cbf\u0cb0
p707
I800
sV\u0cb6\u0cbe
p708
I663
sV\u0cb6\u0cbf
p709
I514
sV\u0ccd\u0cb0\u0ca6
p710
I463
sV\u0cb0\u0cc6 
p711
I313
sV\u0cbe\u0cb0\u0cbf
p712
I405
sV\u0cc7\u0cb3
p713
I838
sV\u0cc7\u0cb2
p714
I543
sV\u0ca7
I105
sV\u0cc7\u0cb0
p715
I426
sV\u0ccd\u0cb0\u0cae
p716
I542
sV\u0cbe\u0cb0\u0cc1
p717
I760
sV\u0cb0 \u0cb8
p718
I864
sV\u0c82\u0cb6
p719
I952
sV\u0ca1 
p720
I614
sV\u0cae 
p721
I433
sV\u0cbf\u0cb7\u0ccd
p722
I829
sV\u0ccd\u0cb0\u0cb5
p723
I609
sV\u0cbf\u0caf\u0cc1
p724
I913
sV\u0cb7
I85
sV\u0ccd\u0cb0\u0cbe
p725
I338
sV\u0ccd\u0cb0\u0cbf
p726
I328
sV\u0ca4\u0ca8\u0ccd
p727
I921
sV\u0ca8 \u0cae
p728
I806
sV\u0cb0 \u0cae
p729
I798
sV\u0cc6\u0cb0
p730
I597
sV\u0ca7\u0ccd\u0caf
p731
I667
sV\u0cac\u0cb0
p732
I386
sV\u0cc7
I36
sV\u0cbf\u0caf\u0cb2
p733
I576
sV\u0c95\u0cc6 
p734
I281
sV\u0ca6\u0cbf\u0ca8
p735
I930
sV\u0cbf\u0caf\u0cbe
p736
I440
sV\u0ccd\u200c 
p737
I274
sV\u0ca6 
p738
I42
sV\u0ca4\u0cc6\u0caf
p739
I866
sV\u0c9f\u0ccd 
p740
I567
sV\u0cc6\u0c82\u0ca6
p741
I639
sV\u0cbe\u0cb0\u0cc6
p742
I447
sV\u0cb8\u0cc1\u0ca4
p743
I389
sV\u0cbf\u0caf\u0ca8
p744
I501
sV\u0cb9\u0cc6\u0c9a
p745
I571
sV\u0cb5\u0cb0\u0cbf
p746
I849
sV\u0ce7
I439
sV \u0c97\u0cc1
p747
I732
sV\u0c9c\u0cbe
p748
I724
sV\u0c9c\u0cbf
p749
I537
sV\u0ca4\u0cc6\u0c97
p750
I859
sV \u0c97\u0ccd
p751
I970
sV\u0cb6\u0ccd
p752
I354
sV\u0cc6\u0caf\u0cbe
p753
I835
sV\u0ccd\u200c\u0c97
p754
I993
sV\u0c97\u0cb3\u0cb2
p755
I345
sV\u0c82\u0cb8\u0ccd
p756
I977
sV\u0cae\u0cc2\u0cb2
p757
I730
sV\u0cad\u0cbf
p758
I706
sV\u0cad\u0cbe
p759
I282
sV\u0c9c\u0ca8
p760
I394
sV\u0ca6 \u0cb5
p761
I819
sV\u0cc1\u0c82
p762
I400
sV\u0cb0\u0c97
p763
I458
sV\u0cb0\u0c95
p764
I378
sV\u0ca7\u0cbf
p765
I374
sV\u0ca7\u0cbe
p766
I575
sV\u0c96\u0ccd
p767
I778
sV\u0cb0\u0c82
p768
I460
sV\u0cae\u0cbe\u0cb0
p769
I582
sV\u0cbe\u0caf\u0cbf
p770
I419
sV\u0cc1\u0c95
p771
I420
sV\u0cc1\u0c97
p772
I219
sV\u0cc1\u0c96
p773
I729
sV\u0c9c
I75
sV\u0cac\u0cc7\u0c95
p774
I886
sV\u0cb0\u0cb2
p775
I366
sV\u0cb0\u0cb0
p776
I927
sV\u0cc1\u0ca4
p777
I104
sV\u0cc1\u0ca6
p778
I150
sV\u0cb8\u0cbf\u0c95
p779
I701
sV\u0cc1\u0ca8
p780
I858
sV\u0cb0\u0cb8
p781
I642
sV\u0ca3\u0cc6
p782
I479
sV\u0cb0\u0cbe
p783
I117
sV\u0cac
I27
sV\u0cc1\u0cae
p784
I754
sV\u0cb0\u0ca3
p785
I331
sV \u0caf
p786
I365
sV\u0ca5\u0cb5\u0cbe
p787
I702
sV\u0cc1\u0cb5
p788
I84
sV\u0c97\u0cb3\u0cbf
p789
I316
sV\u0cb0\u0ca4
p790
I347
sV\u0caf\u0ca4
p791
I962
sV\u0cb0\u0ca8
p792
I612
sV\u0cb0\u0cae
p793
I455
sV\u0cc6\u0c97\u0cb3
p794
I266
sV\u0ca1
I23
sV\u0c82\u0ca6 
p795
I215
sV\u0cc6\u0ca6
p796
I412
sV\u0ca6 \u0cb9
p797
I862
sV\u0cc6\u0c97\u0cc6
p798
I387
sV\u0c82\u0ca1\u0cc1
p799
I857
sV \u0cb0\u0cbe
p800
I477
sV\u0cb0\u0cc2
p801
I461
sV\u0cb2\u0ccd\u0caa
p802
I721
sV\u0cb0\u0cc0
p803
I371
sV\u0cb0\u0cc1
p804
I57
sV\u0cb0\u0cc6
p805
I124
sV\u0cb0\u0cc7
p806
I738
sV\u0cb0\u0ccb
p807
I540
sV\u0cc6\u000a
p808
I90
sV\u0cb5\u0cbf\u0ca8
p809
I992
sV\u0cc1\u000a\u0c85
p810
I846
sV\u0cb0\u0ccd
p811
I45
sV\u000a\u0c88 
p812
I599
sV\u0ca6\u0cbf\u0c82
p813
I726
sV\u0cb0\u0ca8\u0ccd
p814
I897
sV\u0ccd\u200c\u0ca8
p815
I716
sV\u0c97\u0ccd\u0cb0
p816
I563
sV\u0cc6 
p817
I28
sV\u0cb2\u0ccd 
p818
I517
sV\u0ca7\u0ccd
p819
I559
sV\u0cca\u0c82\u0ca1
p820
I399
sV\u000a\u0c95
p821
I603
sV\u0ca8\u0cc0\u0ca1
p822
I874
sV\u000a
I31
sV\u0cb3\u0ccd\u0cb3
p823
I508
sV\u0cb0\u0ccd\u0ca5
p824
I785
sV\u000a\u0c88
p825
I546
sV\u000a\u0c87\u0ca6
p826
I608
sV \u0ca6\u0cc7
p827
I860
sV\u0cad\u0cbe\u0cb0
p828
I916
sV\u000a\u0c85
p829
I372
sV \u0cad\u0cbe
p830
I444
sV\u000a\u0c87
p831
I334
sV\u0cb9\u0ccb
p832
I898
sV\u0cb9\u0cca
p833
I335
sV\u000a\u0cb8
p834
I613
sV\u000a\u0cb9
p835
I824
sV\u0cac 
p836
I626
sV\u0cb9\u0cc1
p837
I388
sV\u0c97\u0cc6 
p838
I126
sV\u0c86\u0c97
p839
I926
sV\u0cad
I119
sV\u0caa\u0c9f\u0ccd
p840
I955
sV\u0cb5\u0cb0 
p841
I592
sV\u0cb9\u0cc6
p842
I323
sV\u000a\u0cae
p843
I588
sV\u0ca6\u0cbf\u0c97
p844
I804
sV\u000a\u0ca8
p845
I924
sV\u000a\u0caa
p846
I820
sV\u0ca8\u0ccd
p847
I24
sV\u0ca8\u0cc2
p848
I868
sV\u0ca8\u0cc0
p849
I474
sV\u0ca8\u0cc1
p850
I52
sV\u0ca8\u0cc6
p851
I170
sV\u0ca8\u0cc7
p852
I481
sV\u0cad\u0cbe\u0c97
p853
I767
sV\u0cb5\u0cbe 
p854
I684
sV\u0ca8\u0cbe
p855
I216
sV\u0ca8\u0cbf
p856
I113
sV\u0ca8\u0cb2
p857
I406
sV\u0ca8\u0cb0
p858
I782
sV\u0ccd
I1
sV\u0ca8\u0cb5
p859
I470
sV\u0cb9\u0cbf
p860
I287
sV\u0cb9\u0cbe
p861
I202
sV\u0ca8\u0ca1
p862
I534
sV\u0ca8\u0ca6
p863
I490
sV\u0c8e\u0c82\u0ca6
p864
I518
sV\u0cc2\u0ca1
p865
I979
sV\u0caa\u0ccd\u0cb0
p866
I110
sV\u0c89\u0ca4\u0ccd
p867
I779
sV\u0ca8\u0c97
p868
I493
sV\u0cc2\u0caa
p869
I934
sV\u0caa\u0ccd\u0caa
p870
I915
sV\u0cbf\u0ca6 
p871
I513
sV\u0cc2\u0cb0
p872
I363
sV\u0cbf\u0cb8\u0cb2
p873
I351
sV\u0cc2\u0cb2
p874
I580
sV\u0ca1\u0ccd 
p875
I743
sV\u0ca8\u0c82
p876
I566
sV\u0cc1\u0ca4\u0ccd
p877
I112
sV\u0ca6\u0cc7 
p878
I697
sV\u0ccd\u0ca5
p879
I241
sV\u0ccd\u0ca4
p880
I30
sV\u0ccd\u0ca7
p881
I417
sV\u0ccd\u0ca6
p882
I136
sV\u0ccd\u0ca1
p883
I554
sV\u0ccd\u0ca3
p884
I401
sV\u0cb0\u0ccd\u0c95
p885
I931
sV\u0c97 
p886
I500
sV\u0ccd\u0caf
p887
I49
sV\u0ccd\u0cae
p888
I208
sV\u0ccd\u0ca8
p889
I38
sV\u0ccd\u0caa
p890
I240
sV\u0ccd\u0cb5
p891
I166
sV\u0c82\u0c95
p892
I654
sV\u0ccd\u0cb7
p893
I211
sV\u0c82\u0c97
p894
I237
sV\u0ccd\u0cb0
p895
I33
sV\u0cb3\u0ccd
p896
I473
sV\u0ccd\u0cb2
p897
I35
sV\u0cb3\u0cc1
p898
I138
sV\u0ca4\u0ca6\u0cc6
p899
I256
sV\u0cbe\u0c97 
p900
I959
sV\u0ccd\u0cb8
p901
I239
sV\u0cb2\u000a
p902
I965
sV\u0c82\u0ca4
p903
I137
sV\u0ca6 \u0c85
p904
I651
sV\u0c82\u0ca6
p905
I48
sV\u0c82\u0ca4\u0cc6
p906
I685
sV\u0c82\u0ca1
p907
I171
sV\u0caf\u0cbf\u0ca4
p908
I583
sV\u0c82\u0cac
p909
I224
sV\u0c82\u0cad
p910
I850
sV\u0c82\u0caa
p911
I486
sV\u0ccd\u0c95
p912
I134
sV \u0c85\u0ca4
p913
I966
sV\u0ccd\u0c97
p914
I480
sV\u0cb2
I9
sV\u0cb2 
p915
I361
sV \u0c85\u0ca5
p916
I749
sV \u0ca8\u0ca1
p917
I742
sV\u0ccd\u0c9f
p918
I100
sV\u0ccd\u0ca5\u0cbe
p919
I958
sV\u0c82\u0cb8
p920
I794
sV\u0ccd\u0c9a
p921
I318
sV\u0ca6\u0ca8\u0ccd
p922
I693
sV\u0ca6\u0cb0 
p923
I700
sV\u0cc2
I62
sV\u0cb3\u0c97
p924
I828
sV\u0ca6 \u0cb8
p925
I512
sV\u0cbf\u0cb8\u0cc1
p926
I251
sV\u0c9a\u0ccd\u0c9a
p927
I408
sV\u0c82\u0ca4\u0cb0
p928
I528
sV\u0ca6\u0cbe\u0cb0
p929
I593
sV\u0ca6 \u0cac
p930
I845
sV\u0ca6 \u0cae
p931
I456
sV\u0ca6 \u0ca8
p932
I802
sV\u0ca6 \u0caa
p933
I578
sV\u0ca6 \u0c95
p934
I520
sV\u0cb3\u0cbf
p935
I143
sV\u0cb0\u0c97\u0cb3
p936
I602
sV\u0cb3\u0cb2
p937
I300
sV\u0cb0\u0cb5
p938
I257
sV\u0cb2\u0cbe\u0c97
p939
I391
sV\u0cbf\u0cb6\u0ccd
p940
I985
sV\u0ca6\u0cbe\u0c97
p941
I579
sV\u0cb3\u0ca8
p942
I207
sV\u0cb5\u0cc1 
p943
I276
sV\u0c89\u0ca6
p944
I889
s.