(dp1
V\u0932\u0947\u0932
p2
I255
sV\u0906
I34
sV\u091a\u0940 
p3
I150
sV\u0940 \u0936
p4
I922
sV \u0926\u0947
p5
I419
sV\u0916
I94
sV\u093e 
p6
I13
sV\u0915\u0947\u0932
p7
I215
sV \u092d\u093e
p8
I294
sV \u0938
p9
I32
sV\u0938\u092e\u093e
p10
I910
sV\u091c\u0940 
p11
I696
sV\u092f\u0915
p12
I469
sV 
I0
sV\u0932\u0947\u0916
p13
I980
sV\u0926
I26
sV\u0933\u0940 
p14
I914
sV\u091d\u093e
p15
I277
sV\u093e\u000a
p16
I259
sV\u0928 \u092e
p17
I790
sV\u0936
I43
sV\u0930\u0926
p18
I888
sV\u0928\u0940
p19
I167
sV\u0928\u0941
p20
I737
sV\u0928\u0947
p21
I109
sV  
p22
I112
sV\u0935\u0930\u094d
p23
I476
sV\u0928\u093e
p24
I69
sV\u0928\u093f
p25
I210
sV\u0921\u0940
p26
I621
sV\u0915\u0930\u0923
p27
I378
sV\u0935\u093e\u0930
p28
I755
sV\u0930\u0940 
p29
I261
sV\u0926\u093e\u0930
p30
I977
sV\u093e\u092e\u0941
p31
I776
sV\u0930\u0924\u0940
p32
I926
sV\u093e  
p33
I952
sV\u0921\u0947
p34
I624
sV\u0930\u0947 
p35
I480
sV\u094d\u0939\u093e
p36
I717
sV\u0917\u094d\u0930
p37
I523
sV \u0926\u093f
p38
I396
sV\u093f\u0935\u093e
p39
I933
sV\u091c 
p40
I661
sV\u0928\u0902
p41
I592
sV\u094d\u0939\u0923
p42
I389
sV\u093e\u0902\u0928
p43
I160
sV\u093f\u0924\u094d
p44
I456
sV\u0916\u0947
p45
I911
sV \u0906\u0939
p46
I91
sV\u093e\u0939\u0940
p47
I349
sV\u0939\u0947\u000a
p48
I148
sV\u093e\u0902\u0924
p49
I539
sV\u0902\u091a\u0947
p50
I486
sV \u0906\u0923
p51
I180
sV\u094d\u0930\u0915
p52
I578
sV\u0902\u091a\u0940
p53
I526
sV\u0902\u091a\u094d
p54
I298
sV \u0906\u092a
p55
I840
sV \u0926\u094b
p56
I937
sV\u0921
I64
sV\u094d\u0930\u0924
p57
I809
sV\u093e\u0930\u093e
p58
I320
sV\u0939\u0947 
p59
I240
sV\u094d\u0930\u092e
p60
I482
sV\u093e\u0938\u0942
p61
I837
sV\u0938\u0947 
p62
I583
sV\u0931
I676
sV\u093e\u0902\u091a
p63
I117
sV\u0938\u093e\u0930
p64
I709
sV\u094d\u0930\u093e
p65
I243
sV\u094d\u0930\u093f
p66
I496
sV\u092f\u093e 
p67
I33
sV\u093e\u092e 
p68
I824
sV\u093e\u0902\u0917
p69
I990
sV\u093e\u0930\u0923
p70
I900
sV \u0917
p71
I130
sV\u0941
I36
sV\u094d\u0930\u0947
p72
I747
sV\u0927\u094d\u092f
p73
I193
sV\u094d\u0930\u0940
p74
I446
sV\u0930\u0924\u093e
p75
I541
sV\u0938\u094d\u0924
p76
I265
sV\u0938\u094d\u0925
p77
I346
sV\u093f\u092f\u093e
p78
I732
sV\u093e\u0930\u094d
p79
I296
sV\u0943\u0924
p80
I544
sV\u093e\u091c\u093e
p81
I915
sV\u0923\u0940 
p82
I626
sV\u0938\u094d\u0935
p83
I519
sV\u093e\u0930\u0947
p84
I722
sV\u092a 
p85
I878
sV\u090f\u0915
p86
I245
sV\u0915\u0940 
p87
I669
sV\u094d\u092e\u093e
p88
I904
sV \u0915\u094d
p89
I671
sV\u0902\u091a\u093e
p90
I511
sV\u092f 
p91
I124
sV\u0930\u0941
p92
I444
sV\u091c\u0928
p93
I584
sV\u0938\u094d\u0915
p94
I828
sV\u0947  
p95
I655
sV\u0909\u0924
p96
I858
sV\u0916\u093e
p97
I477
sV\u093e\u0938
p98
I100
sV\u093e\u0939
p99
I146
sV\u093e\u0930
p100
I45
sV\u093e\u0932
p101
I80
sV\u093e\u0933
p102
I367
sV\u094b\u0924\u0940
p103
I883
sV\u093e\u0935
p104
I81
sV\u093e\u0936
p105
I603
sV\u093e\u0937
p106
I488
sV\u093e\u0928
p107
I73
sV\u091c\u0947
p108
I524
sV\u093e\u092a
p109
I202
sV\u093e\u092c
p110
I609
sV\u093e\u092e
p111
I144
sV\u093e\u092f
p112
I227
sV\u093e\u0920
p113
I256
sV\u093e\u0921
p114
I638
sV\u093e\u0922
p115
I986
sV\u093e\u0923
p116
I237
sV\u093e\u0924
p117
I42
sV\u093e\u0926
p118
I319
sV\u093e\u0927
p119
I675
sV\u0920
I113
sV\u093e\u091a
p120
I62
sV\u093e\u091c
p121
I190
sV\u093e\u091f
p122
I540
sV\u093e\u0937\u094d
p123
I756
sV\u093e\u0915
p124
I413
sV\u0935\u0930 
p125
I252
sV\u093e\u0917
p126
I223
sV\u093e\u0908
p127
I815
sV\u0930
I3
sV\u091a\u093f\u0924
p128
I720
sV\u093e\u0902
p129
I40
sV\u092f \u0938
p130
I947
sV\u091d\u093e\u0932
p131
I312
sV\u0935\u093e 
p132
I503
sV\u0940
I7
sV \u0920
p133
I628
sV \u0921
p134
I662
sV \u0926
p135
I89
sV \u0927
p136
I588
sV \u0924
p137
I59
sV\u0905\u0938\u0947
p138
I566
sV \u092a
p139
I38
sV \u092b
p140
I429
sV \u0928
p141
I84
sV\u0928\u094d
p142
I228
sV \u092e
p143
I44
sV \u092f
p144
I85
sV \u092c
p145
I128
sV \u092d
p146
I171
sV \u0932
p147
I142
sV \u0930
p148
I125
sV \u0936
p149
I133
sV \u0935
p150
I48
sV\u0928 
p151
I49
sV \u0939
p152
I58
sV \u0909\u0924
p153
I930
sV \u0917\u0947
p154
I789
sV\u091c\u0935
p155
I894
sV \u0906
p156
I37
sV \u0907
p157
I345
sV \u0905
p158
I57
sV\u091c\u093e
p159
I141
sV\u091c\u093f
p160
I614
sV \u0909
p161
I224
sV \u090f
p162
I218
sV\u094b\u0924\u093e
p163
I721
sV \u0916
p164
I355
sV\u0940\u0932 
p165
I154
sV \u0915
p166
I29
sV \u091a
p167
I212
sV \u0918
p168
I321
sV\u0928\u093e\u091a
p169
I996
sV \u091f
p170
I629
sV \u091c
p171
I86
sV \u091d
p172
I271
sV\u092f\u093e\u091a
p173
I159
sV\u092f\u094b
p174
I631
sV\u0926\u0930\u094d
p175
I939
sV\u092f\u0947
p176
I119
sV\u092f\u0941
p177
I622
sV\u0940\u0924 
p178
I563
sV\u092e\u0941\u0933
p179
I633
sV\u0938\u0924\u093e
p180
I969
sV\u092f\u093e\u0902
p181
I99
sV\u0935\u093e\u0924
p182
I553
sV\u092f\u093e\u0938
p183
I359
sV\u0939\u0947\u0924
p184
I376
sV\u094d\u0930 
p185
I472
sV\u092f\u093e\u0932
p186
I710
sV\u092b
I229
sV\u0942\u0930\u094d
p187
I587
sV\u0940\u0930
p188
I738
sV\u092f\u093e\u0935
p189
I546
sV\u092f\u093e\u092a
p190
I832
sV\u092a\u094d
p191
I87
sV\u092f\u093e\u0928
p192
I380
sV\u092f\u093e\u092e
p193
I685
sV\u0924\u0940\u0932
p194
I279
sV\u092a\u0947
p195
I826
sV\u093e\u091c\u094d
p196
I890
sV\u092a\u0941
p197
I292
sV\u092f\u093e\u0924
p198
I233
sV\u0947 \u091c
p199
I426
sV\u092a\u093e
p200
I132
sV\u092a\u093f
p201
I959
sV\u091a\u093e\u0930
p202
I821
sV\u094d\u0935\u093e
p203
I398
sV\u0947 \u0915
p204
I358
sV\u094b
I28
sV\u0940\u0935
p205
I647
sV\u092a\u0930
p206
I200
sV\u092f\u0902
p207
I774
sV\u092a\u0932
p208
I619
sV\u0941\u0926\u094d
p209
I799
sV\u093e\u092a\u0930
p210
I886
sV\u092a\u0928
p211
I699
sV\u092a\u0924
p212
I792
sV\u0947 \u0905
p213
I400
sV\u0947 \u0906
p214
I249
sV\u0923\u093e\u0930
p215
I582
sV\u0930\u0923 
p216
I873
sV\u091f\u0915
p217
I857
sV\u092a\u0923
p218
I650
sV\u092a\u0926
p219
I712
sV\u092a\u091f
p220
I839
sV\u0947 \u0938
p221
I288
sV\u0947 \u0939
p222
I440
sV\u093f\u0924 
p223
I399
sV\u0947 \u0935
p224
I360
sV\u0947 \u0936
p225
I882
sV\u092f\u0924
p226
I955
sV\u0947 \u0930
p227
I944
sV  \u092e
p228
I807
sV\u0947 \u0932
p229
I948
sV\u0926\u093f\u0932
p230
I827
sV\u0947 \u092c
p231
I917
sV\u092f\u093e
p232
I15
sV\u0947 \u092e
p233
I362
sV\u0947 \u092f
p234
I610
sV\u0947 \u0928
p235
I554
sV\u0947 \u092a
p236
I310
sV\u093e\u0935\u0947
p237
I862
sV\u0947 \u0924
p238
I341
sV\u0947 \u0926
p239
I714
sV\u0936 
p240
I625
sV\u0947\u0916
p241
I670
sV \u0935\u093e
p242
I280
sV\u0902
I17
sV\u0930 \u0915
p243
I474
sV\u0947\u091f
p244
I796
sV \u0935\u0930
p245
I549
sV\u0947\u091a
p246
I331
sV\u0935\u094d
p247
I211
sV\u0930 \u0906
p248
I547
sV\u0930 \u0905
p249
I865
sV\u0935\u0947
p250
I251
sV\u091f\u0930
p251
I934
sV\u0935\u0940
p252
I391
sV\u0947\u0936
p253
I348
sV\u0920\u0940
p254
I281
sV\u093e\u091a\u0940
p255
I328
sV\u093e\u091a\u0947
p256
I282
sV\u0947\u0932
p257
I77
sV\u0930 \u0935
p258
I861
sV\u0947\u0930
p259
I644
sV \u092e\u0941
p260
I504
sV\u0930 \u0939
p261
I744
sV\u0930 \u0938
p262
I715
sV\u0941\u0933
p263
I538
sV\u093e\u091a\u094d
p264
I257
sV\u0947\u0938
p265
I754
sV\u0947\u0925
p266
I525
sV\u0932
I9
sV\u0947\u0923
p267
I724
sV\u0930 \u0924
p268
I901
sV\u092f\u0947\u0925
p269
I639
sV\u0930 \u092a
p270
I673
sV\u0930 \u092f
p271
I920
sV\u0930 \u092e
p272
I762
sV\u0947\u0928
p273
I692
sV\u0940\u091a\u094d
p274
I813
sV\u0916\u094d\u092f
p275
I632
sV\u0942
I47
sV\u094b\u0928
p276
I680
sV \u091c\u093e
p277
I232
sV\u090f\u0915 
p278
I462
sV \u092e\u0927
p279
I591
sV\u0928 \u0906
p280
I859
sV \u092e\u0939
p281
I415
sV\u0927\u093e\u0930
p282
I988
sV\u0939 
p283
I951
sV \u092e\u093f
p284
I576
sV \u092e\u093e
p285
I238
sV\u0920\u093e
p286
I899
sV\u093e\u091a\u093e
p287
I332
sV\u0935\u093f
p288
I107
sV\u0935\u093e
p289
I65
sV\u0935\u0938
p290
I489
sV\u093f\u0932\u0947
p291
I739
sV \u092e\u0902
p292
I987
sV\u0942\u0928
p293
I106
sV\u0935\u0930
p294
I115
sV\u0935\u0933
p295
I743
sV\u093e\u0930 
p296
I214
sV \u0935\u094d
p297
I508
sV\u093e\u0930\u0940
p298
I551
sV\u092e\u0930\u093e
p299
I983
sV\u0942\u0930
p300
I365
sV\u092a\u0942
p301
I458
sV\u0935\u0924
p302
I565
sV \u0935\u0947
p303
I760
sV\u0935\u0921
p304
I961
sV\u0926\u0947\u0936
p305
I665
sV\u0935\u0923
p306
I876
sV\u000a\u091c
p307
I916
sV\u0905\u0938\u0924
p308
I464
sV\u093f\u0915\u093e
p309
I442
sV\u0938\u0930\u094d
p310
I470
sV\u0940 \u0924
p311
I410
sV\u0940 \u092a
p312
I300
sV\u0930\u093e\u0902
p313
I561
sV\u0940 \u092f
p314
I646
sV\u0940 \u092e
p315
I329
sV\u0940 \u092d
p316
I864
sV\u0940 \u092c
p317
I825
sV\u0940 \u0932
p318
I836
sV\u0930\u093e\u091a
p319
I694
sV\u0905\u0938\u0932
p320
I635
sV\u0930\u093e\u091c
p321
I388
sV\u0940 \u0935
p322
I347
sV\u0927 
p323
I457
sV\u000a\u0905
p324
I708
sV\u0940 \u0939
p325
I422
sV\u0940 \u0938
p326
I234
sV\u091d
I217
sV \u0915\u093e
p327
I164
sV \u0915\u093f
p328
I483
sV\u000a\u0938
p329
I414
sV\u0940 \u0906
p330
I287
sV\u0940 \u0905
p331
I411
sV\u091c\u094d\u092f
p332
I575
sV \u092a\u0941
p333
I386
sV\u092d
I83
sV\u0930\u093e\u0924
p334
I545
sV\u0940\u092f 
p335
I463
sV\u091c
I30
sV\u0915\u094d\u0924
p336
I605
sV\u000a\u092e
p337
I473
sV\u000a\u092f
p338
I272
sV\u0940 \u0917
p339
I806
sV\u0928 \u0915
p340
I461
sV\u0940 \u0915
p341
I285
sV\u000a\u0924
p342
I253
sV\u093f\u0926\u094d
p343
I615
sV\u0930\u093e\u0935
p344
I659
sV\u0930\u093e\u0937
p345
I781
sV\u0940 \u091c
p346
I568
sV\u0940\u0902
p347
I769
sV\u0947 \u0917
p348
I730
sV\u092f\u0915\u094d
p349
I802
sV\u0917\u093e\u0935
p350
I617
sV\u0928\u0902\u0924
p351
I713
sV\u0930\u093e\u092e
p352
I889
sV\u094d
I2
sV\u0926\u094d\u0930
p353
I700
sV\u094d\u0937\u093e
p354
I679
sV\u0926\u094d\u092f
p355
I521
sV \u0907\u0924
p356
I953
sV\u0940\u0915
p357
I690
sV\u0940\u091a
p358
I275
sV\u0926\u094d\u0927
p359
I452
sV \u0915\u0947
p360
I181
sV\u0915 
p361
I79
sV\u0924
I5
sV\u093e\u0935\u093e
p362
I453
sV\u092a\u093e\u0938
p363
I687
sV\u0933\u093e
p364
I374
sV\u0940\u0924
p365
I337
sV\u0940\u0928
p366
I438
sV\u0923\u0942
p367
I595
sV\u0940\u092e
p368
I966
sV\u0940\u092f
p369
I423
sV\u0940\u0932
p370
I135
sV\u093e\u0928\u0947
p371
I307
sV \u0915\u094b
p372
I784
sV\u093f\u0915\u094d
p373
I793
sV\u0939\u0940
p374
I143
sV\u0940\u0938
p375
I945
sV\u0923\u094d\u092f
p376
I194
sV\u0936\u0928
p377
I995
sV \u0938\u0902
p378
I207
sV\u0915\u093e\u0902
p379
I552
sV \u092a\u094d
p380
I122
sV\u093f\u0927
p381
I912
sV \u0906\u0932
p382
I517
sV\u0924\u0940
p383
I74
sV\u0936\u0939
p384
I985
sV \u0935 
p385
I286
sV\u0947\u000a
p386
I60
sV\u0936\u093e
p387
I269
sV\u0936\u093f
p388
I317
sV\u092e\u094b\u0920
p389
I984
sV\u0928 \u092a
p390
I729
sV \u0938\u092e
p391
I492
sV\u093f\u0923
p392
I913
sV\u094d\u0937\u0923
p393
I897
sV \u0918\u0947
p394
I683
sV\u092c
I55
sV\u0928 \u0924
p395
I682
sV\u094d\u0928
p396
I611
sV\u093f\u0924\u0940
p397
I935
sV\u0928 \u0938
p398
I686
sV \u0938\u093e
p399
I216
sV\u0947 
p400
I24
sV\u0938\u094d\u091f
p401
I822
sV\u094b\u0917
p402
I681
sV \u0938\u0930
p403
I448
sV\u094d\u092f
p404
I16
sV\u0928 \u0935
p405
I847
sV\u0936\u0915
p406
I788
sV\u0916 
p407
I906
sV\u0932\u0940\u000a
p408
I436
sV \u0938\u094d
p409
I230
sV \u0938\u0941
p410
I420
sV\u094c
I649
sV\u0916\u094d
p411
I593
sV\u0907\u0902
p412
I950
sV\u0937\u094d\u091f
p413
I405
sV\u094d\u092a
p414
I451
sV\u0936\u0940
p415
I441
sV \u092f\u093e
p416
I136
sV \u092a\u093e
p417
I283
sV\u0942 
p418
I356
sV\u0936\u0947
p419
I716
sV\u0936\u094d
p420
I371
sV\u092f\u0947 
p421
I246
sV\u0907\u0924
p422
I844
sV\u092a\u0915
p423
I960
sV\u0933\u0947 
p424
I530
sV\u0935 
p425
I129
sV\u0938\u093f
p426
I493
sV\u090a
I613
sV\u092d\u093e\u0917
p427
I618
sV\u0928\u093f\u0930
p428
I830
sV\u0940  
p429
I892
sV\u0941\u0930\u0941
p430
I962
sV\u0924\u0942\u0928
p431
I845
sV\u0907
I264
sV\u0927\u093f
p432
I768
sV\u0927\u093e
p433
I335
sV\u0923 \u0915
p434
I997
sV\u200d
I967
sV\u092d\u093e\u0930
p435
I522
sV\u0902\u0917
p436
I213
sV\u093e\u0928 
p437
I402
sV\u0917
I31
sV\u091c\u093e\u0924
p438
I385
sV\u093f\u0915 
p439
I284
sV\u0902\u091a
p440
I98
sV\u0902\u0924
p441
I137
sV\u0902\u0926
p442
I263
sV\u0902\u0927
p443
I640
sV\u0902\u0921
p444
I364
sV\u0927
I53
sV\u0902\u092c
p445
I375
sV\u0930\u093e 
p446
I645
sV\u0902\u092e
p447
I642
sV\u0902\u0928
p448
I149
sV\u0902\u092a
p449
I490
sV\u000a\u092a
p450
I437
sV\u0915\u094d
p451
I88
sV\u0902\u0935
p452
I558
sV\u091a\u093f
p453
I484
sV\u0937
I68
sV\u0902\u0928\u093e
p454
I392
sV\u093e\u091a 
p455
I852
sV\u0915\u0947
p456
I131
sV\u0902\u0938
p457
I487
sV\u0915\u0940
p458
I404
sV\u0915\u0943
p459
I860
sV\u0915\u093f
p460
I363
sV\u0915\u093e
p461
I56
sV\u093e \u0909
p462
I823
sV\u092f\u0947\u0924
p463
I885
sV\u0947
I4
sV\u093e \u0905
p464
I313
sV\u0902\u0928\u0940
p465
I267
sV\u093e \u0906
p466
I236
sV\u0915\u0930
p467
I114
sV\u092a\u0941\u0930
p468
I707
sV\u0915\u0932
p469
I581
sV\u093e \u091c
p470
I395
sV\u0915\u092e
p471
I942
sV\u0947\u0925\u0947
p472
I782
sV\u093e \u091a
p473
I925
sV\u093e \u0915
p474
I201
sV\u0915\u0924
p475
I871
sV\u093e \u0917
p476
I573
sV\u0939\u093f\u0924
p477
I979
sV\u0915\u0921
p478
I648
sV\u093e\u0917\u093e
p479
I941
sV\u0939\u094d\u092f
p480
I663
sV\u000a\u0924\u094d
p481
I407
sV\u093e \u092c
p482
I636
sV\u0940 
p483
I22
sV\u093e \u092e
p484
I248
sV\u093e \u0928
p485
I432
sV\u0924\u093f
p486
I301
sV\u093e \u0924
p487
I406
sV\u0924\u0940 
p488
I289
sV\u093e \u0939
p489
I393
sV\u093e \u0938
p490
I178
sV\u0927\u0940
p491
I520
sV\u093e \u0935
p492
I220
sV\u0927\u094d
p493
I179
sV\u0933 
p494
I502
sV\u093e \u0930
p495
I667
sV\u093e \u0932
p496
I797
sV\u0921 
p497
I499
sV\u0915\u0930\u0924
p498
I719
sV\u094d\u091f 
p499
I932
sV\u0939\u093e\u0930
p500
I805
sV\u0947\u0915
p501
I323
sV\u0909\u0924\u094d
p502
I956
sV \u0935\u093f
p503
I187
sV\u0938\u0942\u0928
p504
I498
sV\u0939\u0924
p505
I759
sV\u094d\u0915
p506
I401
sV\u0938\u0939
p507
I869
sV\u093e\u0932\u093e
p508
I306
sV\u092e 
p509
I274
sV\u092e
I19
sV\u0915\u093e\u0933
p510
I812
sV\u0935\u0940 
p511
I764
sV\u093e
I1
sV\u091f\u094d\u0930
p512
I556
sV\u0939\u094b\u0924
p513
I172
sV\u0947\u0933
p514
I688
sV\u0924\u0940\u000a
p515
I989
sV\u0941\u0933\u0947
p516
I653
sV\u093e\u0930\u0924
p517
I542
sV\u094b\u0924\u0947
p518
I424
sV\u092e\u0939\u093e
p519
I590
sV\u0932\u093e 
p520
I116
sV\u093e\u0932\u0947
p521
I512
sV\u0906\u092a
p522
I742
sV\u093f\u0932\u093e
p523
I766
sV\u0923\u0947 
p524
I481
sV\u094d\u0924 
p525
I598
sV\u0935\u0947 
p526
I982
sV\u0915\u0930\u0942
p527
I975
sV\u0932\u093e\u000a
p528
I471
sV\u0918\u093e
p529
I814
sV\u094d\u0930\u0938
p530
I924
sV\u092d\u093e
p531
I161
sV\u0947\u0902
p532
I599
sV\u094d\u0925
p533
I239
sV\u094d\u0924
p534
I103
sV\u094d\u0927
p535
I326
sV\u094d\u0926
p536
I643
sV\u0938\u092e
p537
I390
sV\u094d\u0923
p538
I557
sV\u0909
I197
sV \u091d\u093e
p539
I293
sV\u094d\u092e
p540
I295
sV\u093e\u0920\u0940
p541
I304
sV\u0938\u0924
p542
I325
sV \u092a\u0930
p543
I428
sV\u094d\u0935
p544
I118
sV\u094d\u0937
p545
I156
sV\u0924 \u0924
p546
I841
sV\u0938\u093e
p547
I75
sV\u094d\u0930
p548
I35
sV\u094d\u0932
p549
I435
sV\u0938\u0932
p550
I447
sV\u0938\u0930
p551
I268
sV\u094d\u0939
p552
I163
sV\u094d\u0938
p553
I491
sV\u0932\u0940 
p554
I203
sV\u0906\u0932
p555
I513
sV\u0906\u0932\u0947
p556
I965
sV\u0938\u0902
p557
I151
sV\u0906\u0939
p558
I90
sV\u0923\u0942\u0928
p559
I728
sV\u092e\u0941\u0916
p560
I881
sV\u0915\u093e\u092e
p561
I795
sV\u0915\u093e\u0930
p562
I209
sV\u0926\u0941
p563
I772
sV\u094d\u0917
p564
I703
sV\u0906\u0923
p565
I169
sV\u0926\u0947
p566
I250
sV\u0939
I18
sV\u0915\u093e\u0939
p567
I921
sV\u094d\u091f
p568
I199
sV\u0926\u094b
p569
I791
sV\u0926\u094d
p570
I147
sV \u0936\u093f
p571
I606
sV\u091f 
p572
I322
sV\u0926\u0930
p573
I454
sV\u0930\u094d\u0917
p574
I746
sV\u0949
I408
sV\u0924 \u092e
p575
I811
sV\u0947\u0935
p576
I315
sV\u0926\u093e
p577
I242
sV\u0926\u093f
p578
I270
sV\u0924 \u0935
p579
I798
sV\u0922
I338
sV\u0938\u0941\u0930
p580
I819
sV\u093e\u0935 
p581
I620
sV \u092e\u094d
p582
I379
sV\u0947\u0924\u000a
p583
I430
sV\u0930\u093f\u0915
p584
I838
sV\u0924 \u0939
p585
I741
sV\u093f 
p586
I165
sV\u0930\u094d\u0935
p587
I342
sV\u0924 \u0905
p588
I500
sV\u0924\u0915
p589
I691
sV \u0928\u093f
p590
I372
sV \u0928\u093e
p591
I262
sV\u0938\u094d
p592
I70
sV\u0938\u0942
p593
I373
sV \u092f\u0947
p594
I387
sV\u0938\u0940
p595
I946
sV\u0938\u0941
p596
I333
sV\u091a 
p597
I225
sV\u0938\u0947
p598
I260
sV\u0947\u0924 
p599
I634
sV\u0930\u094d\u0925
p600
I733
sV\u0924 \u0915
p601
I425
sV\u0930\u094d\u0923
p602
I758
sV\u091a\u0947 
p603
I120
sV\u0930\u094d\u092e
p604
I604
sV\u0930\u094d\u092f
p605
I384
sV\u0932\u093f
p606
I382
sV \u0939\u094b
p607
I145
sV\u094d\u0924\u094d
p608
I485
sV \u0939\u0940
p609
I749
sV\u0908
I427
sV\u092e\u0902
p610
I678
sV \u0939\u0947
p611
I370
sV\u0940 \u090f
p612
I992
sV\u0921\u0932
p613
I976
sV\u0924\u094b 
p614
I808
sV\u0918
I192
sV\u0925\u0947 
p615
I718
sV\u0939\u093e 
p616
I340
sV\u0921\u093f
p617
I981
sV\u0921\u093e
p618
I585
sV\u092e\u0928
p619
I810
sV\u0947\u000a\u092e
p620
I957
sV\u0905\u0928\u0947
p621
I896
sV\u0928
I11
sV\u0918\u0947
p622
I654
sV\u0924 \u0928
p623
I898
sV\u092e\u0927
p624
I182
sV\u092e\u0939
p625
I357
sV\u0947\u0924
p626
I126
sV\u092e\u093e
p627
I76
sV\u092e\u093f
p628
I297
sV\u092e\u0930
p629
I668
sV\u0938
I10
sV\u0924 \u0938
p630
I652
sV\u0924\u094b\u000a
p631
I516
sV \u0932\u094b
p632
I674
sV\u092a\u0942\u0930
p633
I533
sV\u0932\u094b\u0915
p634
I666
sV\u092e\u094b
p635
I497
sV\u092e\u094d
p636
I241
sV\u0924 \u0906
p637
I344
sV\u092e\u0940
p638
I418
sV\u092e\u0941
p639
I221
sV \u0932\u093e
p640
I465
sV\u092e\u0947
p641
I532
sV\u0930\u094d\u0937
p642
I701
sV\u094d\u091a
p643
I818
sV\u0902\u0935\u093e
p644
I974
sV\u0923\u093f 
p645
I185
sV\u0921\u0942
p646
I991
sV\u094d\u091f\u094d
p647
I572
sV\u0902\u0915
p648
I571
sV\u0932\u093e\u0917
p649
I866
sV\u0928\u0947\u0915
p650
I880
sV\u0906\u0923\u093f
p651
I186
sV\u094d\u0924\u093e
p652
I863
sV \u0939\u093e
p653
I475
sV\u093e\u0924\u094d
p654
I787
sV\u091a\u094d
p655
I71
sV \u0924\u094d
p656
I153
sV\u0941\u0902
p657
I748
sV\u092c\u0902
p658
I905
sV\u0915\u093f\u0902
p659
I964
sV \u0924\u0947
p660
I439
sV\u092e\u0927\u094d
p661
I244
sV\u0938 
p662
I177
sV\u091a\u0947
p663
I108
sV\u091a\u0940
p664
I140
sV\u0913
I907
sV\u0938\u093e\u0902
p665
I993
sV\u0941\u0915
p666
I612
sV\u0941\u0916
p667
I804
sV\u2019
I918
sV\u0915\u093e 
p668
I597
sV\u091f\u093e
p669
I514
sV\u0923
I27
sV\u094d\u0927 
p670
I751
sV\u092a\u0930\u094d
p671
I630
sV\u0941\u0926
p672
I689
sV\u0941\u0928
p673
I664
sV\u092e\u093e\u0930
p674
I569
sV\u0941\u0930
p675
I266
sV\u0933
I67
sV\u0941\u0932
p676
I601
sV\u0941\u0935
p677
I958
sV\u093e\u0924\u0947
p678
I849
sV\u092c\u0930
p679
I570
sV\u092e\u093e\u0928
p680
I417
sV\u092c\u093e
p681
I258
sV\u0941\u0938
p682
I501
sV\u092e\u093e\u0923
p683
I740
sV\u093e\u0939\u093f
p684
I705
sV \u0936\u093e
p685
I931
sV\u0943
I302
sV \u0905\u0927
p686
I909
sV\u093f\u0939
p687
I903
sV\u093f\u0938
p688
I416
sV\u093f\u0937
p689
I586
sV\u093f\u0936
p690
I564
sV\u093f\u0935
p691
I309
sV\u092c\u094d
p692
I550
sV\u093f\u0933
p693
I672
sV\u093f\u0932
p694
I175
sV\u093f\u0930
p695
I303
sV\u093f\u092f
p696
I368
sV\u093f\u092e
p697
I537
sV\u091f\u094d
p698
I351
sV\u0917\u0924
p699
I887
sV\u0940\u000a
p700
I235
sV\u093f\u0928
p701
I409
sV\u091f\u0947
p702
I850
sV\u093f\u0926
p703
I531
sV\u091c\u0947 
p704
I927
sV\u093f\u0924
p705
I139
sV\u0902\u092e\u0927
p706
I895
sV\u0930\u0942\u0928
p707
I750
sV\u093e\u0935\u0930
p708
I316
sV\u091f\u0940
p709
I518
sV\u093f\u091a
p710
I923
sV\u093f\u0915
p711
I104
sV\u0915\u0941
p712
I752
sV \u0924\u093e
p713
I872
sV\u091a\u093e
p714
I105
sV\u091a\u093e 
p715
I152
sV \u0905\u0938
p716
I134
sV\u093f\u0902
p717
I324
sV\u0902\u0924\u0930
p718
I433
sV\u0932\u0915
p719
I943
sV\u094b 
p720
I515
sV\u0935\u093f\u0926
p721
I928
sV\u093e\u092e\u093e
p722
I777
sV\u092f\u0902\u0924
p723
I884
sV\u0926\u0940
p724
I467
sV\u0938\u094b
p725
I757
sV\u0925\u093e
p726
I330
sV\u094d\u0935 
p727
I801
sV \u0924\u0930
p728
I731
sV\u0932 \u0938
p729
I870
sV\u091a
I21
sV\u0947\u0915 
p730
I697
sV\u0947\u000a\u0938
p731
I829
sV\u0947\u000a\u0939
p732
I765
sV\u0902\u0924\u094d
p733
I877
sV\u094b\u000a
p734
I505
sV\u0932\u093e
p735
I63
sV\u092a
I20
sV\u0920\u0947
p736
I978
sV\u0940 \u0926
p737
I702
sV\u0947\u000a\u092f
p738
I574
sV\u0947\u000a\u092a
p739
I893
sV\u0947\u000a\u0924
p740
I548
sV\u094d\u0924\u0940
p741
I706
sV\u0920\u0940 
p742
I314
sV \u0905\u0928
p743
I543
sV\u0915\u094b
p744
I506
sV\u0938\u093e\u0920
p745
I369
sV\u0924\u0947\u000a
p746
I205
sV\u094d\u0925\u093e
p747
I479
sV\u0917\u0930
p748
I771
sV\u0924\u0947 
p749
I291
sV\u0924 
p750
I39
sV\u0932\u0947
p751
I61
sV\u0932\u0940
p752
I110
sV\u0924\u093e 
p753
I377
sV\u0932\u094d
p754
I102
sV \u0905\u0936
p755
I998
sV\u0921\u0947 
p756
I853
sV\u0928\u0947 
p757
I184
sV\u0932\u094b
p758
I468
sV\u0932\u0947 
p759
I158
sV\u0939\u0940 
p760
I188
sV\u0924\u000a
p761
I170
sV\u091a\u094d\u092f
p762
I78
sV\u093e\u0933\u093e
p763
I971
sV\u000a 
p764
I641
sV\u0925\u0947
p765
I509
sV \u0905\u0902
p766
I855
sV\u0938\u093e\u092e
p767
I834
sV\u0928\u093e 
p768
I231
sV\u092e\u0940 
p769
I794
sV\u0924\u093e\u000a
p770
I936
sV\u0936\u093f\u0915
p771
I843
sV\u0905
I50
sV\u091c\u0940
p772
I412
sV\u0930\u0915
p773
I311
sV\u0930\u091a
p774
I562
sV\u0928\u0940 
p775
I204
sV\u093e \u090f
p776
I973
sV\u094d\u092f\u0915
p777
I608
sV\u0924\u094d\u092f
p778
I82
sV\u0924\u094d\u0930
p779
I162
sV \u0917\u093e
p780
I527
sV\u0915
I8
sV\u0923\u093e
p781
I196
sV\u0906\u092a\u0932
p782
I902
sV\u0939\u0923\u0942
p783
I761
sV\u0935\u0932
p784
I580
sV\u093e\u092e\u0927
p785
I879
sV\u0915\u0938
p786
I954
sV\u0930\u0932
p787
I693
sV\u091c\u094d
p788
I361
sV\u0925
I101
sV\u094d\u092f\u093e
p789
I23
sV\u0940\u0928 
p790
I854
sV\u0917 
p791
I397
sV\u0931\u094d
p792
I677
sV\u0930\u0938
p793
I449
sV\u0930\u093e
p794
I52
sV\u0930\u093f
p795
I206
sV\u092e\u094d\u0939
p796
I343
sV\u0930\u0923
p797
I198
sV\u093f\u0932\u094d
p798
I607
sV\u0935
I12
sV\u0926\u0940 
p799
I800
sV\u0930\u0924
p800
I191
sV\u0930\u092a
p801
I711
sV\u093e\u0938\u093e
p802
I366
sV\u0930\u092e
p803
I352
sV\u0935\u0928
p804
I963
sV\u0945
I535
sV\u0937 
p805
I775
sV\u093e\u0938\u094d
p806
I704
sV\u0928\u0935
p807
I656
sV \u0930\u093e
p808
I276
sV\u0939\u093f\u0932
p809
I579
sV\u0930\u0942
p810
I339
sV\u0930\u0940
p811
I123
sV\u093e\u0924\u000a
p812
I354
sV\u0930\u0947
p813
I222
sV\u0930\u094b
p814
I381
sV\u094d\u092f\u0947
p815
I219
sV\u0930\u094d
p816
I51
sV\u0932\u094d\u0932
p817
I891
sV\u0924 \u092a
p818
I684
sV\u0940 \u0928
p819
I577
sV\u0923\u094d
p820
I189
sV\u0942\u0928 
p821
I111
sV\u092a\u094d\u0930
p822
I96
sV\u0923\u0940
p823
I445
sV\u0923\u0947
p824
I394
sV\u0928\u094d\u092f
p825
I536
sV\u093e\u0924 
p826
I92
sV\u0938\u0932\u0947
p827
I780
sV\u0932\u094d\u092f
p828
I155
sV\u094b\u0923
p829
I994
sV\u094b\u0921
p830
I803
sV\u094b\u0920
p831
I938
sV\u094b\u0924
p832
I157
sV\u0947\u0932\u093e
p833
I450
sV\u000a
I25
sV\u094b\u0932
p834
I651
sV\u094b\u0930
p835
I657
sV\u093e\u0916
p836
I816
sV \u092c\u093e
p837
I495
sV\u0924\u094d\u0924
p838
I421
sV \u090f\u0915
p839
I278
sV\u0936\u0940 
p840
I596
sV\u0939\u094b
p841
I138
sV\u0924\u094d
p842
I41
sV\u0939\u094d
p843
I602
sV\u0924\u094b
p844
I290
sV\u0924\u093e\u0928
p845
I919
sV\u0924\u0947
p846
I95
sV\u0917\u0947\u0932
p847
I786
sV\u0930\u092e\u093e
p848
I723
sV\u0924\u0942
p849
I600
sV\u0939\u0947
p850
I66
sV\u0924\u0941
p851
I767
sV\u0932 
p852
I97
sV\u094b\u0915
p853
I459
sV\u000a\u0915
p854
I627
sV\u0915 \u0935
p855
I908
sV\u094b\u091c
p856
I745
sV\u093e \u092d
p857
I736
sV\u093e\u0928\u093e
p858
I567
sV\u0902\u0924 
p859
I529
sV\u0939\u0923
p860
I353
sV\u0924\u0930 
p861
I336
sV\u093e \u092f
p862
I528
sV\u0924\u093e
p863
I72
sV\u0924\u093e\u0924
p864
I247
sV \u092e\u094b
p865
I660
sV\u0939\u093f
p866
I226
sV\u0939\u093e
p867
I121
sV\u0915 \u0906
p868
I949
sV\u0939\u0930
p869
I658
sV\u0924\u0932
p870
I637
sV\u0932\u0947\u000a
p871
I305
sV\u0924\u0930
p872
I195
sV\u0930\u0902
p873
I510
sV\u0928\u093e\u0935
p874
I623
sV\u0915 \u0938
p875
I842
sV\u0928\u093e\u0939
p876
I778
sV\u093e \u092a
p877
I173
sV\u000a\u092f\u093e
p878
I318
sV\u0915 \u092e
p879
I940
sV\u0947\u0932\u0947
p880
I273
sV\u0940 \u0930
p881
I856
sV\u0915 \u092a
p882
I868
sV\u0936\u094d\u0930
p883
I970
sV\u0947\u0932\u0940
p884
I455
sV\u0923\u093f
p885
I168
sV\u0947\u0932\u094d
p886
I403
sV\u0909\u092a
p887
I785
sV\u0924\u094d\u0935
p888
I753
sV\u093e \u0926
p889
I383
sV\u0906\u0939\u0947
p890
I93
sV\u0923 
p891
I183
sV\u0935\u094d\u0939
p892
I560
sV\u090f
I166
sV\u093e\u0932\u0940
p893
I460
sV\u0926 
p894
I507
sV\u0935\u093e\u091a
p895
I734
sV\u0930\u0923\u094d
p896
I559
sV\u093e\u0924\u0940
p897
I308
sV\u0935\u094d\u092f
p898
I350
sV\u000a\u0906
p899
I851
sV\u091f
I54
sV\u0938\u0902\u0938
p900
I848
sV\u0937\u0947
p901
I779
sV\u0933\u0940
p902
I589
sV\u0917\u0923
p903
I999
sV\u093e\u0938 
p904
I434
sV\u0933\u0947
p905
I443
sV\u0937\u094d
p906
I254
sV\u0930\u093f\u092f
p907
I972
sV\u092f
I6
sV\u0915\u094d\u0930
p908
I534
sV\u0930 
p909
I46
sV\u0917\u0932
p910
I833
sV\u0948
I334
sV\u0917\u093e
p911
I174
sV\u094d\u092f 
p912
I299
sV\u093f
I14
sV\u0917\u0947
p913
I555
sV \u0915\u0930
p914
I176
sV\u0937\u0923
p915
I735
sV\u0917\u0941
p916
I846
sV\u0917\u0940
p917
I695
sV\u0917\u094d
p918
I327
sV\u0917\u094b
p919
I770
sV\u0915\u094d\u0937
p920
I208
sV\u0947\u091a 
p921
I773
sV\u0905\u0902
p922
I783
sV \u091a\u093f
p923
I820
sV \u091a\u093e
p924
I763
sV\u0937\u093e
p925
I478
sV\u000a\u0939
p926
I431
sV\u093e\u0902\u092e
p927
I875
sV\u093e \u0936
p928
I616
sV\u0930\u0923\u093e
p929
I727
sV\u0905\u0928
p930
I494
sV\u093e\u0924\u093e
p931
I929
sV\u093f\u0930\u094d
p932
I874
sV\u0905\u0927
p933
I867
sV\u0930\u0935
p934
I466
sV \u0909\u092a
p935
I817
sV\u092e\u093f\u0933
p936
I726
sV\u0930\u0915\u093e
p937
I594
sV\u0902\u0938\u094d
p938
I835
sV\u0905\u0938
p939
I127
sV\u0931\u094d\u092f
p940
I698
sV\u000a\u0935
p941
I725
sV\u0905\u0936
p942
I831
sV\u0905\u0930
p943
I968
s.