(dp1
V\u0b36 
p2
I448
sV\u0b02
I126
sV\u0b2e\u0b5f\u0b30
p3
I924
sV\u0b3f\u0b32\u0b3e
p4
I189
sV\u0b39\u0b3f\u0b01
p5
I870
sV 
I0
sV\u0b22
I810
sV\u0b2c\u0b47 
p6
I644
sV\u0b32
I17
sV\u0b05\u0b28\u0b41
p7
I622
sV\u0b30\u0b26
p8
I763
sV\u0b05\u0b28\u0b4d
p9
I559
sV\u0b24\u0b4d\u0b24
p10
I347
sV\u0b42
I170
sV\u0b19\u0b4d\u0b15
p11
I80
sV\u0b30\u0b38\u0b4d
p12
I937
sV\u0b19\u0b4d\u0b17
p13
I328
sV\u0b24 
p14
I74
sV\u0b2a\u0b4d
p15
I78
sV\u0b30\u0b40 
p16
I438
sV\u0b33\u0b3e 
p17
I943
sV \u0b15\u0b25
p18
I950
sV\u0b32\u0b3e 
p19
I168
sV\u0b30\u0b28\u0b4d
p20
I988
sV\u0b30\u0b47 
p21
I26
sV\u0b3f\u0b32\u0b47
p22
I118
sV\u0b3e\u0b5f
p23
I304
sV\u0b3f\u0b26\u0b4d
p24
I828
sV\u0b4d\u0b26\u0b4d
p25
I537
sV\u0b38\u0b3e\u0b30
p26
I774
sV\u0b3f\u0b30 
p27
I533
sV\u0b43\u0b37\u0b4d
p28
I885
sV\u0b30\u0b2c
p29
I758
sV \u0b38\u0b3f
p30
I903
sV\u0b38\u0b3f\u0b39
p31
I542
sV \u0b68\u0b66
p32
I759
sV\u0b38\u0b28
p33
I485
sV\u0b28\u0b4d\u0b5f
p34
I482
sV\u0b38\u0b2e
p35
I192
sV\u0b3f\u0b15\u0b3e
p36
I405
sV\u0b38\u0b2c
p37
I938
sV\u0b07\u0b25\u0b3f
p38
I231
sV\u0b4d\u0b26\u0b3f
p39
I863
sV\u0b07\u0b25\u0b3e
p40
I717
sV\u0b24\u0b4d\u0b30
p41
I151
sV\u000a\u0b0f
p42
I191
sV\u0b38\u0b3e
p43
I160
sV\u0b38\u0b3f
p44
I155
sV\u000a\u0b05
p45
I794
sV\u0b38\u0b30
p46
I398
sV\u0b3f\u0b28 
p47
I821
sV\u0b2c\u0b3e\u0b30
p48
I434
sV\u0b06\u0b30
p49
I437
sV \u0b36\u0b4d
p50
I858
sV\u000a\u0b38
p51
I272
sV\u0b30\u0b3e\u0b2f
p52
I444
sV\u0b17 
p53
I320
sV\u0b38\u0b02
p54
I424
sV\u0b2d
I55
sV\u000a\u0b2c
p55
I608
sV\u0b26\u0b41
p56
I590
sV\u000a\u0b2e
p57
I708
sV\u000a\u0b2a
p58
I459
sV\u0b26\u0b47
p59
I159
sV\u000a\u0b24
p60
I634
sV\u0b2e\u0b4d\u0b2c
p61
I558
sV\u0b2e\u0b4d\u0b2d
p62
I704
sV\u0b2e\u0b4d\u0b2a
p63
I674
sV\u0b26\u0b4d
p64
I129
sV \u0b36\u0b3f
p65
I681
sV\u0b3e\u0b30\u0b3f
p66
I458
sV\u0b26\u0b30
p67
I577
sV\u0b37 
p68
I484
sV \u0b30\u0b4b
p69
I593
sV\u0b4d
I3
sV\u0b26\u0b3e
p70
I389
sV\u0b26\u0b3f
p71
I195
sV \u0b28\u0b47
p72
I952
sV\u0b3e\u0b07 
p73
I663
sV\u0b3f\u0b01 
p74
I939
sV\u0b24 \u0b39
p75
I367
sV\u0b24 \u0b38
p76
I985
sV \u0b28\u0b3f
p77
I179
sV \u0b28\u0b3e
p78
I319
sV\u0b38\u0b4d
p79
I86
sV \u0b2f\u0b47
p80
I816
sV\u0b38\u0b41
p81
I515
sV\u0b6d
I659
sV\u0b38\u0b47
p82
I135
sV\u0b24 \u0b15
p83
I581
sV\u0b28\u0b4d\u0b28
p84
I640
sV\u0b3f\u0b15\u0b4d
p85
I689
sV\u0b28\u0b4d\u0b24
p86
I114
sV\u0b28\u0b4d\u0b26
p87
I265
sV\u0b28\u0b4d\u0b27
p88
I814
sV\u0b24\u0b4d\u0b5f
p89
I471
sV\u0b25\u0b3f\u0b32
p90
I87
sV \u0b39\u0b4b
p91
I213
sV \u0964
p92
I34
sV\u0b30\u0b15\u0b4d
p93
I990
sV \u0b39\u0b41
p94
I572
sV\u0b16\u0b4d
p95
I665
sV\u0b25 
p96
I747
sV\u0b15\u0b30 
p97
I338
sV \u0b39\u0b47
p98
I292
sV\u0b1c\u0b40
p99
I685
sV\u0b41 \u0b2e
p100
I796
sV\u0b1c\u0b4d
p101
I498
sV\u0b3f\u0b36\u0b3e
p102
I873
sV\u0b21\u0b3c
p103
I190
sV\u0b21\u0b3f
p104
I472
sV\u0b25\u0b3f\u0b2c
p105
I270
sV\u0b2e\u0b28
p106
I399
sV\u0b40\u0b19
p107
I892
sV\u0b2e\u0b23
p108
I819
sV\u0b2c
I9
sV\u0b2e\u0b27
p109
I291
sV\u0b2e\u0b38
p110
I373
sV\u0b2e\u0b39
p111
I529
sV\u0b05\u0b27\u0b3f
p112
I668
sV\u0b15\u0b25\u0b3e
p113
I907
sV\u0b32 
p114
I409
sV\u0b2e\u0b3e
p115
I83
sV\u0b2e\u0b3f
p116
I201
sV\u0b2e\u0b30
p117
I516
sV\u0b3f 
p118
I21
sV\u0b39\u0b30
p119
I779
sV\u0b3c
I165
sV \u0b32\u0b4b
p120
I775
sV\u0b0f\u0b2c
p121
I386
sV\u0b2e\u0b4d
p122
I144
sV\u0b2e\u0b41
p123
I365
sV \u0b32\u0b3e
p124
I883
sV\u0b4c
I610
sV\u0b41\u0b25\u0b3f
p125
I782
sV\u0b2e\u0b47
p126
I480
sV\u0b2d \u0b15
p127
I969
sV\u0b2f\u0b41
p128
I857
sV\u0b0f\u0b39
p129
I112
sV\u0b2e\u0b5f
p130
I647
sV\u0b24\u0b41 
p131
I936
sV\u0b13 
p132
I134
sV\u0b4d\u0b2e\u0b3e
p133
I926
sV\u0b1c\u0b30
p134
I835
sV\u0b1c\u0b3e
p135
I284
sV\u0b1c\u0b3f
p136
I491
sV\u0b24\u0b3e\u0b19
p137
I334
sV\u0b6c
I613
sV\u0b3f\u0b36\u0b4d
p138
I797
sV\u0b3f\u0b39\u0b3e
p139
I469
sV\u0b4d\u0b37 
p140
I832
sV\u0b1c\u0b23
p141
I553
sV \u0b39\u0b3e
p142
I962
sV\u0b39\u0b41\u0b0f
p143
I624
sV\u0b3e\u0b24\u0b4d
p144
I630
sV\u0b0f\u0b15
p145
I244
sV\u0b1c\u0b28
p146
I385
sV\u0b28\u0b3e\u0b2e
p147
I596
sV\u0b2f\u0b4d
p148
I418
sV\u0b23\u0b40
p149
I808
sV\u0b2f\u0b4b
p150
I501
sV\u0b07
I42
sV\u0b2f\u0b47
p151
I727
sV\u0b3c\u0b3f
p152
I301
sV  
p153
I807
sV\u0b41\u0b0f
p154
I600
sV\u0b47\u0b07\u0b25
p155
I822
sV\u0b2d\u0b3f\u0b28
p156
I551
sV\u0b41\u0b15
p157
I547
sV\u0b17
I38
sV\u0b41\u0b16
p158
I874
sV\u0b1c\u0b3e\u0b24
p159
I919
sV\u0b15\u0b3e 
p160
I721
sV\u0b41\u0b23
p161
I735
sV\u0b38\u0b28 
p162
I993
sV\u0b41\u0b25
p163
I749
sV\u0b41\u0b24
p164
I700
sV\u0b4d\u0b30 
p165
I275
sV\u0b41\u0b26
p166
I742
sV\u0b4d\u0b5f\u0b41
p167
I848
sV\u0b20\u0b3e\u0b30
p168
I513
sV\u0b26\u0b40
p169
I722
sV\u0b41\u0b2c
p170
I901
sV\u0b41\u0b2e
p171
I679
sV\u0b41\u0b30
p172
I241
sV\u0b41\u0b32
p173
I815
sV\u0b37
I60
sV\u0b41\u0b39
p174
I889
sV\u0b41\u0b38
p175
I748
sV\u0b2a\u0b47
p176
I862
sV\u0b2a\u0b41
p177
I346
sV\u0b2a\u0b42
p178
I562
sV\u0b3f\u0b5f
p179
I631
sV\u0b2a\u0b3e
p180
I100
sV\u0b5f\u0b30\u0b47
p181
I394
sV\u0b30\u0b4d\u0b36
p182
I908
sV\u0b47
I6
sV\u0964\u000a\u0b38
p183
I280
sV\u0b2a\u0b30
p184
I107
sV\u0b2a\u0b41\u0b30
p185
I602
sV\u0b23\u0b47 
p186
I884
sV\u0b3f \u0b2c
p187
I500
sV \u0b17\u0b41
p188
I917
sV\u0b4b\u0b07\u0b25
p189
I420
sV\u0964\u000a\u0b24
p190
I651
sV\u0b47\u0b2c\u0b3e
p191
I671
sV\u0b2a\u0b24
p192
I690
sV\u0964\u000a\u0b2a
p193
I468
sV\u0b30\u0b4d\u0b2e
p194
I584
sV\u0b06\u0b38
p195
I911
sV\u0964\u000a\u0b2e
p196
I731
sVa
I289
sV\u0b01 
p197
I233
sV\u0b40 
p198
I108
sV\u0964\u000a\u0b15
p199
I614
sV\u0b27
I65
sV\u0b67
I148
sV\u0b3f\u0b24 
p200
I174
sV\u0b3f \u0b28
p201
I829
sV \u0b24\u0b3e
p202
I278
sV\u0964\u000a\u0b05
p203
I820
sV\u0b68\u0b66\u0b67
p204
I995
sV\u0b1b\u0b3f 
p205
I271
sV\u0b47\u0b38
p206
I918
sV \u0b1c\u0b28
p207
I761
sV\u0b33 
p208
I299
sV\u0b23\u0b47
p209
I834
sV\u0964\u000a\u0b0f
p210
I196
sV\u0b21 
p211
I767
sV\u0b25\u0b2e
p212
I833
sV\u0b15\u0b25
p213
I860
sV\u0b4b\u0b1f\u0b3f
p214
I964
sV\u0b06
I69
sV\u0b3f \u0b2e
p215
I702
sV\u200c
I316
sV\u0b3e\u0b15\u0b41
p216
I350
sV\u0b15\u0b30\u0b3e
p217
I372
sV\u0b15\u0b30\u0b3f
p218
I111
sV\u0b25\u0b3f
p219
I57
sV\u0b25\u0b3e
p220
I132
sV\u0b2c\u0b28
p221
I525
sV\u0b16
I110
sV\u0b41 \u0b05
p222
I845
sV\u200c\u0b39
p223
I986
sV\u0b30\u0b24\u0b3f
p224
I645
sV\u0b21\u0b3c\u0b3f
p225
I330
sV\u0b47\u0b15 
p226
I736
sV\u0b26
I19
sV\u0b2e 
p227
I176
sV\u0b3e\u0b1a\u0b3f
p228
I935
sV\u0b32\u0b3e
p229
I103
sV\u0b32\u0b3f
p230
I285
sV\u0b1e\u0b4d\u0b1c
p231
I960
sV\u0b36
I46
sV\u0b3e \u0b0f
p232
I683
sV \u0b2e\u0b28
p233
I738
sV\u0b4d\u0b24\u0b41
p234
I723
sV\u0b30\u0b4b\u0b17
p235
I587
sV \u0b1c\u0b3e
p236
I781
sV\u0b26\u0b47\u0b16
p237
I792
sV\u0b0f\u0b15 
p238
I300
sV \u0b2e\u0b27
p239
I302
sV\u0b0f 
p240
I130
sV \u0b2e\u0b39
p241
I609
sV \u0b2e\u0b38
p242
I522
sV\u0b32\u0b47
p243
I89
sV \u0b1c\u0b23
p244
I623
sV\u0b24\u0b3e 
p245
I332
sV \u0b2e\u0b3f
p246
I554
sV \u0b2e\u0b3e
p247
I267
sV\u0b32\u0b4d
p248
I440
sV\u0b13\u0b21
p249
I719
sV\u0b26\u0b47\u0b07
p250
I855
sV\u0b20\u0b3e
p251
I356
sV\u0b28\u0b47 
p252
I592
sV\u0b32\u0b4b
p253
I450
sV\u0b36\u0b30
p254
I836
sV\u0b15\u0b30\u0b4d
p255
I976
sV\u0b66
I175
sV\u0b15\u0b30\u0b47
p256
I871
sV\u0b26\u0b47\u0b36
p257
I642
sVl
I512
sV\u0b15\u0b30\u0b41
p258
I968
sV\u0b26\u0b47\u0b2c
p259
I734
sV\u0b28\u0b3e 
p260
I426
sV\u0b40\u0b5f 
p261
I404
sV\u0b1c 
p262
I617
sV \u0b13\u0b21
p263
I824
sV\u0b4d\u0b1f\u0b3f
p264
I707
sV\u0b41 \u0b15
p265
I910
sV\u0b47\u0b16\u0b3e
p266
I934
sV\u0b01
I186
sV\u0b36\u0b4d\u0b71
p267
I639
sV\u0b3f\u0b24\u0b4d
p268
I303
sV\u0b4d\u0b37\u0b3e
p269
I791
sV\u0b24\u0b30 
p270
I887
sV\u0b30\u0b41 
p271
I173
sV\u0b2a\u0b3f
p272
I477
sV\u0b24\u0b40\u0b5f
p273
I632
sV\u0b47\u0b07 
p274
I869
sV\u0b32\u0b3f 
p275
I826
sV\u0b15\u0b41 
p276
I105
sV\u0b33\u0b40
p277
I880
sV\u0b33\u0b47
p278
I696
sV\u0b40\u0b5f
p279
I370
sV\u0b21
I75
sV\u0b41 
p280
I47
sV \u0b15\u0b3e
p281
I288
sV \u0b15\u0b3f
p282
I507
sV\u0b2c\u0b40
p283
I830
sVp
I948
sV\u0b4d\u0b30\u0b2e
p284
I657
sV \u0b2c\u0b4b
p285
I929
sV\u0b2c\u0b41
p286
I677
sV \u0b15\u0b30
p287
I72
sV\u0b37\u0b3e 
p288
I878
sV \u0b15\u0b32
p289
I856
sV\u0b15\u0b3e\u0b30
p290
I180
sV \u0b15\u0b2e
p291
I994
sV\u0b4d\u0b30\u0b30
p292
I920
sV\u0b47 \u0b15
p293
I376
sV\u0b4d\u0b30\u0b3e
p294
I240
sV\u0b4d\u0b30\u0b3f
p295
I473
sV \u0b2a\u0b42
p296
I840
sV\u0b4d\u0b30\u0b38
p297
I925
sV\u0b4d\u0b30\u0b39
p298
I843
sV\u0b41
I14
sV\u0b4d\u0b30\u0b47
p299
I732
sV \u0b1b
p300
I802
sV\u0b47 \u0b17
p301
I949
sV\u0b4d\u0b30\u0b40
p302
I493
sV\u0b25\u0b3e 
p303
I744
sV\u0b5f\u0b28
p304
I806
sV \u0b0f\u0b2c
p305
I403
sV\u0b2c\u0b4b
p306
I746
sV \u0b15\u0b4d
p307
I579
sV\u0b40\u0b15
p308
I865
sV\u0964\u000a
p309
I32
sV \u0b15\u0b47
p310
I701
sV\u0b2a 
p311
I637
sV \u0b15\u0b41
p312
I750
sV\u0b39\u0b3f 
p313
I182
sV\u0964\u000a\u0b2c
p314
I625
sV\u0b33\u0b3f
p315
I443
sV\u0b33\u0b3e
p316
I436
sV\u0b40\u0b24
p317
I563
sV\u0b40\u0b28
p318
I912
sV\u0b33\u0b30
p319
I606
sV\u0b26\u0b4d\u0b71
p320
I545
sV\u0b3f\u0b2d
p321
I652
sV\u0b40\u0b2c
p322
I864
sV\u0b71
I138
sV\u0b40\u0b30
p323
I341
sV\u0b3f\u0b2c
p324
I96
sV\u0b71\u0b3e\u0b30
p325
I675
sV\u0b07\u0b01 
p326
I463
sV \u0b67
p327
I298
sV\u0b30\u0b39\u0b3f
p328
I548
sV \u0b38\u0b02
p329
I483
sV \u0b68
p330
I474
sV\u0b17\u0b40
p331
I755
sV \u0b2a\u0b4d
p332
I102
sV\u0b3f\u0b27
p333
I882
sV\u0b1c\u0b40\u0b2c
p334
I982
sV\u0b3f\u0b26
p335
I510
sV\u0b4d\u0b21
p336
I295
sV\u0b05\u0b2d\u0b3f
p337
I768
sV \u0b2a\u0b41
p338
I569
sV\u0b47 \u0b06
p339
I787
sV\u0b36\u0b3e
p340
I407
sV\u0b36\u0b3f
p341
I390
sV\u0b20
I185
sV\u0b24\u0b4d
p342
I71
sV \u0b38\u0b2e
p343
I217
sV\u0b4d\u0b71\u0b30
p344
I895
sV\u0b24\u0b47
p345
I457
sV\u0b24\u0b40
p346
I361
sV\u0b24\u0b41
p347
I478
sV\u0b30
I2
sV \u0b38\u0b39
p348
I535
sV\u0b1a\u0b3f\u0b24
p349
I377
sV \u0b38\u0b3e
p350
I339
sV\u000a\u0b15
p351
I598
sV \u0b0f
p352
I77
sV\u0b2c\u0b47\u0b33
p353
I847
sV \u0b38\u0b30
p354
I813
sV\u0b4d\u0b71\u0b3e
p355
I432
sV\u0b24\u0b2e
p356
I972
sV\u0b40
I37
sV \u0b21
p357
I646
sV \u0b26
p358
I94
sV \u0b27
p359
I567
sV \u0b24
p360
I133
sV \u0b25
p361
I255
sV \u0b2a
p362
I27
sV \u0b2b
p363
I502
sV \u0b28
p364
I79
sV \u0b2e
p365
I48
sV \u0b2f
p366
I156
sV \u0b2c
p367
I39
sV \u0b2d
p368
I123
sV\u0b24\u0b3e
p369
I98
sV\u0b24\u0b3f
p370
I82
sV \u0b30
p371
I97
sV\u0b3f\u0b30\u0b47
p372
I539
sV \u0b36
p373
I158
sV\u0b3f\u0b1b
p374
I428
sV \u0b38
p375
I28
sV \u0b39
p376
I81
sV\u0b68\u0b66
p377
I517
sV\u0b24\u0b30
p378
I274
sV\u0b30\u0b4d\u0b26
p379
I961
sV \u0b2f\u0b3e
p380
I518
sV \u0b2a\u0b3e
p381
I169
sV \u0b06
p382
I116
sV \u0b07
p383
I519
sV \u0b05
p384
I68
sV \u0b09
p385
I193
sV \u0b2a\u0b30
p386
I181
sV \u0b13
p387
I117
sVr
I388
sV \u0b16
p388
I442
sV \u0b17
p389
I143
sV \u0b15
p390
I23
sV \u0b1a
p391
I194
sV\u0b2c\u0b3e\u0b39
p392
I784
sV \u0b18
p393
I776
sV \u0b1f
p394
I713
sV \u0b1c
p395
I120
sV\u0b30\u0b3e\u0b1c
p396
I425
sV\u0b26\u0b3f\u0b30
p397
I984
sV\u0b40\u0b19\u0b4d
p398
I893
sV\u0b3e\u0b2c\u0b47
p399
I916
sV\u0b32\u0b4b\u0b15
p400
I703
sV\u0b2e\u0b27\u0b4d
p401
I297
sV\u0b38 
p402
I337
sV\u0b27 
p403
I619
sV\u0b2c\u0b3e 
p404
I125
sV\u0b41 \u0b0f
p405
I859
sV\u0b30\u0b3f 
p406
I259
sV\u0b1b
I131
sV\u0b3f\u0b15 
p407
I212
sV\u0b2f\u0b3e\u0b07
p408
I392
sV\u0b3f\u0b0f
p409
I777
sV \u0b38\u0b4d
p410
I243
sV\u0b2f\u0b3e
p411
I128
sV\u0b30\u0b3e 
p412
I408
sV\u0b2b
I222
sV\u0b39\u0b47\u0b2c
p413
I915
sV\u0b1a\u0b3e
p414
I449
sV\u0b2a\u0b42\u0b30
p415
I728
sV\u0b47 \u0b13
p416
I944
sV\u0b06 
p417
I486
sV\u0b47 \u0b2f
p418
I838
sV\u0b39\u0b47\u0b32
p419
I879
sV\u0b2e\u0b3e\u0b28
p420
I171
sV\u0b17\u0b3f
p421
I931
sV\u0b17\u0b3e
p422
I520
sV \u0b38\u0b41
p423
I753
sV\u0b41\u0b26\u0b4d
p424
I991
sV\u0b0f\u0b39\u0b3f
p425
I208
sV\u0b0f\u0b39\u0b3e
p426
I258
sV\u0b30\u0b30 
p427
I743
sV\u0b37\u0b23
p428
I850
sV\u0b17\u0b41
p429
I391
sV \u0b2e\u0b41
p430
I571
sV \u0b06\u0b30
p431
I788
sV \u0b38\u0b47
p432
I210
sV\u0b17\u0b4d
p433
I311
sV\u0b17\u0b4b
p434
I648
sV\u0b26 
p435
I538
sV\u0b3e\u0b07\u0b25
p436
I487
sV\u0b5f\u0b24
p437
I906
sV\u0b37\u0b3f
p438
I987
sV\u0b02 
p439
I364
sV\u0b3e\u0b2e\u0b3e
p440
I971
sV\u0b4d\u0b24\u0b3e
p441
I809
sV\u0b2a\u0b15
p442
I967
sV\u0b05\u0b2d
p443
I670
sV \u0b32
p444
I211
sV\u0b66\u0b67
p445
I904
sV\u0b05\u0b28
p446
I225
sV\u0b6b
I503
sV\u0b30\u0b3e\u0b2e
p447
I818
sVm
I867
sV\u0b3f\u0b28\u0b4d
p448
I402
sV\u0b30\u0b15\u0b3e
p449
I661
sV\u0b3e\u0b07\u0b01
p450
I461
sV\u0b28\u0b4d 
p451
I992
sV\u0b05\u0b30
p452
I970
sV\u0b39\u0b3f\u0b24
p453
I770
sV \u0964\u000a
p454
I35
sV\u0b32\u0b15
p455
I979
sV\u0b3e\u0b28\u0b19
p456
I445
sV\u0b4d\u0b1f 
p457
I678
sV\u0b3f\u0b1b\u0b3f
p458
I552
sV \u0b26\u0b41
p459
I868
sV \u0b26\u0b47
p460
I251
sV\u0b4d\u0b30\u0b24
p461
I492
sV \u0b2d\u0b3e
p462
I221
sV\u0b1a
I64
sV\u0b5f\u0b41
p463
I560
sV\u0b3e\u0b2e 
p464
I603
sV\u0b3f \u0964
p465
I198
sV\u0b30\u0b25\u0b2e
p466
I888
sV\u0b2a
I13
sV\u0b28\u0b19\u0b4d
p467
I415
sV\u0b71\u0b3e
p468
I368
sV\u0b16\u0b4d\u0b5f
p469
I769
sV\u0b4d\u0b30\u0b25
p470
I839
sV\u000a\u0b38\u0b47
p471
I550
sV\u0b28\u0b4d
p472
I44
sV\u0b28\u0b40
p473
I508
sV\u0b28\u0b41
p474
I430
sV\u0b28\u0b47
p475
I224
sV\u0b2f\u0b4b\u0b17
p476
I627
sV\u0b28\u0b3e
p477
I115
sV\u0b28\u0b3f
p478
I113
sV\u0b1c\u0b23\u0b47
p479
I899
sV\u0b39 
p480
I475
sV\u0b28\u0b30
p481
I381
sV\u0b4d\u0b1a\u0b3f
p482
I726
sV\u0b36\u0b41
p483
I980
sV\u0b38\u0b2e\u0b5f
p484
I716
sV\u0b1a\u0b4d\u0b1a
p485
I626
sV\u0b2c\u0b3e\u0b15
p486
I711
sV\u0b27\u0b3e\u0b30
p487
I688
sV\u0b24\u0b28
p488
I762
sV\u0b38\u0b2e\u0b4d
p489
I595
sV\u0b2d 
p490
I636
sV\u0b5f\u0b3e
p491
I164
sV\u0b28\u0b19
p492
I414
sVh
I875
sV\u0b4d\u0b24 
p493
I309
sV\u0b6a
I597
sV\u0b1a\u0b28
p494
I687
sV \u0b26\u0b3f
p495
I523
sV\u0b5f\u0b30
p496
I257
sV\u0b3e\u0b28\u0b30
p497
I951
sV\u0b5f\u0b2c
p498
I684
sV\u0b07 
p499
I252
sV\u0b2d\u0b3f
p500
I323
sV\u0b2d\u0b3e
p501
I136
sV\u0b4d\u0b25
p502
I202
sV\u0b4d\u0b24
p503
I51
sV\u0b4d\u0b27
p504
I333
sV\u0b4d\u0b26
p505
I153
sV\u0b05
I58
sV\u0b4d\u0b20
p506
I720
sV\u0b4d\u0b23
p507
I325
sV\u0b4d\u0b2d
p508
I511
sV\u0b4d\u0b2c
p509
I227
sV\u0b4d\u0b2f
p510
I406
sV\u0b4d\u0b2e
p511
I228
sV\u0b5f \u0b38
p512
I780
sV\u0b4d\u0b28
p513
I327
sV\u0b3f\u0b2c\u0b3e
p514
I119
sV\u0b36\u0b4d
p515
I236
sV\u0b66 
p516
I641
sV\u0b67\u0b6f
p517
I452
sV\u0b4d\u0b37
p518
I150
sV\u0b4d\u0b36
p519
I902
sV\u0b15
I5
sV\u0b4d\u0b30
p520
I30
sV\u0b4d\u0b32
p521
I532
sV\u0b24\u0b3f 
p522
I141
sV\u0b1e\u0b4d\u0b1a
p523
I669
sV\u0b4d\u0b38
p524
I556
sV\u0b5f \u0b2a
p525
I876
sV\u0b30\u0b19\u0b4d
p526
I947
sV\u0b5f \u0b15
p527
I470
sV\u0b15\u0b4d\u0b37
p528
I206
sV\u0b25
I25
sV\u0b15\u0b4d\u0b30
p529
I447
sV\u0b2e\u0b28\u0b4d
p530
I561
sV\u0b1b\u0b3f
p531
I248
sV\u0b15 \u0b2c
p532
I605
sV\u0b38\u0b47 
p533
I277
sV\u0b4d\u0b15
p534
I66
sV\u0b15\u0b4d\u0b24
p535
I359
sV\u0b4d\u0b17
p536
I273
sV\u0b3f\u0b25\u0b3f
p537
I177
sV\u0b3f\u0b25\u0b3e
p538
I886
sV\u0b47\u0b33\u0b47
p539
I999
sV\u0b4d\u0b1c
p540
I621
sV\u0b4d\u0b1f
p541
I157
sV\u0b1b\u0b28
p542
I740
sV\u0b4d\u0b1a
p543
I268
sV\u0b4b\u0b32\u0b3f
p544
I966
sV\u000a\u0b0f\u0b39
p545
I261
sV\u0b4d\u0b5f 
p546
I137
sV\u0b26\u0b4d\u0b30
p547
I564
sV\u0b4d\u0b71
p548
I152
sV\u0b4d\u0b2f\u0b4d
p549
I460
sV\u0b33\u0b47 
p550
I795
sV\u0b26\u0b4d\u0b27
p551
I586
sV\u0b15 
p552
I45
sVc
I618
sV\u0b2a\u0b4d\u0b30
p553
I93
sV\u0b71\u0b30
p554
I872
sV\u0b43\u0b24
p555
I435
sVs
I433
sV\u0b09\u0b2a
p556
I476
sV\u0b30\u0b2e\u0b4d
p557
I786
sV\u0b3e\u0b28\u0b4d
p558
I354
sV\u0b4d\u0b5f
p559
I43
sV\u0b25\u0b3e\u0b0f
p560
I467
sV\u0b09\u0b25
p561
I975
sV\u0b09\u0b24
p562
I891
sV\u0b16\u0b3e
p563
I466
sV\u0b16\u0b3f
p564
I638
sV\u0b3e\u0b38
p565
I230
sV\u0b3e\u0b39
p566
I178
sV\u0b0f\u0b2c\u0b02
p567
I411
sV\u0b3e\u0b30
p568
I24
sV\u0b26\u0b4d\u0b5f
p569
I739
sV\u0b3e\u0b32
p570
I401
sV\u0b3e\u0b33
p571
I308
sV\u0b41\u0b15\u0b4d
p572
I766
sV\u0b3e\u0b36
p573
I718
sV\u0b3e\u0b37
p574
I799
sV\u0b32\u0b47 
p575
I101
sV\u0b3e\u0b2a
p576
I279
sV\u0b3e\u0b2c
p577
I183
sV\u0b23\u0b3e
p578
I490
sV\u0b3e\u0b2e
p579
I161
sV\u0b3e\u0b2f
p580
I232
sV\u0b3e\u0b21
p581
I954
sV\u0b3e\u0b23
p582
I329
sV\u0b39\u0b3e 
p583
I315
sV\u0b3e\u0b26
p584
I366
sV\u0b3e\u0b27
p585
I494
sV\u0b3e\u0b19
p586
I219
sV\u0b3e\u0b1a
p587
I534
sV\u0b3e\u0b1c
p588
I305
sV\u0b24
I8
sV\u0b3e\u0b1f
p589
I633
sV\u0b27\u0b30
p590
I789
sV\u0b3e\u0b15
p591
I188
sV\u0b3e\u0b17
p592
I395
sV\u0b3e\u0b09
p593
I825
sV\u0b47\u0b24
p594
I495
sV\u0b3e\u0b0f
p595
I184
sV \u0b13 
p596
I145
sV\u0b43\u0b37
p597
I831
sV\u0b24\u0b3f\u0b30
p598
I897
sV\u0b3e\u0b07
p599
I104
sV\u0b0f \u0964
p600
I199
sV\u0b3e\u0b2f\u0b3e
p601
I256
sV\u0b1f\u0b3f 
p602
I378
sV\u000a\u0b30
p603
I996
sV\u0b43\u0b24\u0b4d
p604
I965
sV\u0b3f\u0b19\u0b4d
p605
I928
sV\u0b2c\u0b30\u0b4d
p606
I393
sV\u0b39\u0b47\u0b09
p607
I983
sV\u0b47\u0b2e
p608
I615
sV\u0b2c\u0b30\u0b47
p609
I676
sV\u0b4d\u0b2c\u0b3e
p610
I667
sV \u0b2f\u0b4b
p611
I773
sV\u0b30 \u0b28
p612
I724
sV\u0b2e\u0b39\u0b3e
p613
I894
sV\u0b47\u0b1f
p614
I913
sV\u0b3e\u0b19\u0b4d
p615
I220
sV\u0b15 \u0b15
p616
I932
sV \u0b17\u0b4d
p617
I811
sV \u0b17\u0b4b
p618
I881
sV\u0b27\u0b3e\u0b28
p619
I953
sVn
I351
sV\u000a\u0b24\u0b3e
p620
I978
sV\u0b30 \u0b2c
p621
I453
sV\u0b2f\u0b3e\u0b0f
p622
I357
sV\u0b41 \u0b2a
p623
I557
sV\u0b1a\u0b4d
p624
I504
sV\u0b41 \u0b28
p625
I923
sV\u0b2c\u0b02
p626
I371
sV\u0b41 \u0b2c
p627
I611
sV\u0b23 
p628
I154
sV\u0b0f
I33
sV\u0b41 \u0b38
p629
I540
sV\u0b41\u0b21
p630
I790
sV\u0b2a\u0b3e\u0b07
p631
I331
sV\u0b28\u0b30\u0b47
p632
I729
sV\u0b1f
I49
sV\u0b1f\u0b3f
p633
I147
sV\u0b1f\u0b3e
p634
I589
sV\u0b4d\u0b15\u0b30
p635
I343
sV\u0b3e \u0964
p636
I239
sV\u0b4d\u0b15\u0b3e
p637
I898
sV\u0b3e\u0b28\u0b47
p638
I612
sV\u0b2f
I59
sV\u0b1f\u0b30
p639
I620
sV\u0b30 
p640
I22
sV\u0b40\u0b30 
p641
I861
sV\u0b2c\u0b30
p642
I167
sV\u0b2c\u0b3e
p643
I54
sV\u0b2c\u0b3f
p644
I99
sV\u0b3e\u0b30 
p645
I124
sV\u0b3f
I4
sV\u0b2c\u0b39
p646
I710
sV\u0b47 \u0b1c
p647
I691
sV\u0b2c\u0b47
p648
I215
sV\u0b4d\u0b23\u0b4d
p649
I765
sV \u0b05\u0b27
p650
I578
sV\u0b3f\u0b39
p651
I383
sV\u0b3f\u0b38
p652
I488
sV\u0b3f\u0b37
p653
I462
sV\u0b3f\u0b36
p654
I269
sV\u0b2c\u0b4d
p655
I226
sV\u0b3f\u0b33
p656
I588
sV\u0b3f\u0b32
p657
I67
sV\u0b3f\u0b30
p658
I122
sV\u0b3f\u0b2e
p659
I348
sV\u0b1f\u0b4d
p660
I514
sV\u0b47 \u0b0f
p661
I296
sV\u0b4d\u0b15\u0b41
p662
I345
sV\u0b3f\u0b2a
p663
I524
sV\u0b3f\u0b28
p664
I139
sV\u0b1f\u0b47
p665
I697
sV\u0b47 \u0b05
p666
I410
sV\u0b3f\u0b25
p667
I140
sV\u0b3f\u0b24
p668
I95
sV\u0b5f
I18
sV\u0b3e\u0b38 
p669
I714
sV\u0b3f\u0b1f
p670
I754
sV\u0b3f\u0b1c
p671
I429
sV\u0b47 \u0b38
p672
I197
sV\u0b23\u0b3e 
p673
I945
sV\u0b3f\u0b19
p674
I927
sVi
I290
sV\u0b3f\u0b30\u0b4d
p675
I455
sV\u0b3f\u0b15
p676
I91
sV\u0b47 \u0b30
p677
I664
sV\u0b6f
I281
sV\u0b47 \u0b2c
p678
I283
sV\u0b47 \u0b2d
p679
I921
sV\u0b47 \u0b2e
p680
I363
sV\u0b1a\u0b3f
p681
I234
sV\u0b47 \u0b28
p682
I575
sV\u0b47 \u0b2a
p683
I260
sV\u0b47 \u0b24
p684
I643
sV\u0b3f\u0b06
p685
I250
sV\u0b47 \u0b26
p686
I741
sV\u0b5f\u0b3e 
p687
I752
sV\u0b37\u0b4d
p688
I172
sV\u0b3f\u0b01
p689
I866
sV\u0b1a\u0b33
p690
I576
sV\u0b47\u0b16
p691
I489
sV\u0b47\u0b15
p692
I451
sV\u0b3f\u0b17
p693
I973
sV\u0b30 \u0b15
p694
I379
sV\u0b27\u0b3f\u0b15
p695
I607
sV\u0b42\u0b30\u0b4d
p696
I580
sV\u0b39\u0b3e\u0b30
p697
I223
sV\u0b30 \u0b1c
p698
I933
sV\u0b47\u0b07
p699
I380
sV\u0b5f\u0b15
p700
I530
sV\u0b30 \u0b06
p701
I957
sV\u0b30 \u0b05
p702
I565
sV\u0b3e 
p703
I16
sV\u0b30 \u0b0f
p704
I841
sV\u0b47\u0b09
p705
I616
sV\u0b1e
I312
sV\u0b47\u0b37
p706
I666
sV\u0b47\u0b36
p707
I344
sV\u0b30 \u0b30
p708
I977
sV\u0b47\u0b33
p709
I582
sV\u0b47\u0b32
p710
I396
sV\u0b47\u0b30
p711
I574
sV\u0b30 \u0b38
p712
I321
sV\u0b47\u0b39
p713
I803
sV\u0b2e
I11
sV\u0b2c\u0b02 
p714
I412
sV \u0b25\u0b3f
p715
I342
sV\u0b47\u0b23
p716
I905
sV\u0b30 \u0b26
p717
I854
sV\u0b13\u0b21\u0b3c
p718
I730
sV\u0b30 \u0b2a
p719
I276
sV\u0b47\u0b2c
p720
I245
sV\u0b30 \u0b2e
p721
I496
sV\u0b3e
I1
sV \u0b05\u0b2c
p722
I852
sV \u0b05\u0b2d
p723
I693
sV\u0b1f\u0b4d\u0b30
p724
I837
sV \u0b05\u0b28
p725
I264
sV\u0b17\u0b30
p726
I479
sV \u0b67\u0b6f
p727
I654
sV\u0b3e\u0b28
p728
I70
sV\u0b39\u0b4b\u0b07
p729
I216
sVd
I772
sV\u0b3f \u0b0f
p730
I997
sV\u0b02\u0b38
p731
I963
sV\u0b17\u0b4d\u0b30
p732
I423
sV\u0b6e
I568
sV\u0b2a\u0b3e\u0b30
p733
I464
sV\u0b42\u0b30
p734
I456
sVt
I384
sV\u0b30\u0b30\u0b47
p735
I531
sV\u0b2d\u0b3e\u0b2c
p736
I358
sV\u0b30\u0b15
p737
I282
sV\u0b09
I109
sV\u0b30\u0b19
p738
I946
sV\u0b23\u0b4d\u0b23
p739
I771
sV\u0b43
I187
sV\u0b23\u0b4d\u0b21
p740
I340
sV\u0b3f\u0b06 
p741
I594
sV\u0b23\u0b3f
p742
I555
sV\u0b1e\u0b4d
p743
I421
sV\u0b19
I61
sV\u0b38\u0b4d\u0b71
p744
I629
sV\u0b2c\u0b3f\u0b2d
p745
I941
sV\u0b41\u0b28
p746
I680
sV\u0b30\u0b30
p747
I293
sV\u0b3e\u0b30\u0b3e
p748
I481
sV\u0b2c 
p749
I349
sV\u0b3e\u0b24
p750
I214
sV\u0b30\u0b38
p751
I549
sV\u0b30\u0b39
p752
I306
sV\u0b30\u0b3e
p753
I63
sV\u0b30\u0b3f
p754
I50
sV\u0b1c
I41
sV\u0b23\u0b4d\u0b1f
p755
I783
sV\u0b30\u0b23
p756
I310
sV\u0b27\u0b4d\u0b5f
p757
I249
sV\u0b4d\u0b15 
p758
I146
sV\u0b30\u0b24
p759
I254
sV\u0b30\u0b25
p760
I699
sV\u0b39
I15
sV\u0b3e\u0b30\u0b24
p761
I658
sV\u0b30\u0b28
p762
I812
sV\u0b21\u0b3e
p763
I756
sV\u0b30\u0b2e
p764
I307
sV\u0b4b
I36
sV\u0b3e\u0b30\u0b23
p765
I712
sV\u0b1f 
p766
I314
sV\u0b3f \u0b15
p767
I375
sV\u0b2c\u0b3f\u0b36
p768
I692
sV\u0b2c\u0b4d\u0b5f
p769
I427
sV\u0b38\u0b4d\u0b24
p770
I369
sV\u0b38\u0b4d\u0b25
p771
I294
sV \u0b30\u0b39
p772
I497
sV \u0b30\u0b3e
p773
I355
sV\u0b23 \u0b15
p774
I528
sV\u0b3e\u0b30\u0b4d
p775
I317
sV\u0b3f \u0b05
p776
I800
sV\u0b30\u0b40
p777
I200
sV\u0b30\u0b41
p778
I121
sV\u0b26\u0b3f\u0b28
p779
I930
sV\u0b30\u0b47
p780
I20
sV\u0b3e\u0b5f 
p781
I998
sV\u0b30\u0b4b
p782
I287
sV\u0b3e\u0b30\u0b47
p783
I149
sV\u0b30\u0b3f\u0b15
p784
I686
sV\u0b3e\u0b30\u0b41
p785
I505
sV\u0b3e\u0b30\u0b40
p786
I823
sV\u0b30\u0b4d
p787
I52
sV\u0b30\u0b3f\u0b2c
p788
I318
sV\u0b30\u0b4d\u0b37
p789
I694
sV\u0b3f \u0b30
p790
I695
sV\u0b23\u0b4d
p791
I163
sV\u0b69
I591
sV\u0b30\u0b3f\u0b25
p792
I229
sV\u0b3f \u0b38
p793
I397
sV\u0b3f \u0b39
p794
I959
sVo
I362
sV\u0b30\u0b4d\u0b24
p795
I650
sV\u0b30\u0b4d\u0b25
p796
I844
sV\u0b3f \u0b26
p797
I827
sV \u0b1a\u0b3e
p798
I846
sV\u0b3e\u0b39\u0b3e
p799
I387
sV\u0b3e\u0b39\u0b3f
p800
I635
sV\u0b30\u0b4d\u0b23
p801
I709
sV\u0b30\u0b4d\u0b2c
p802
I400
sV\u0b38\u0b4d\u0b15
p803
I793
sV\u0b30\u0b23 
p804
I546
sV\u0b30\u0b4d\u0b2f
p805
I454
sV\u0b3e\u0b0f 
p806
I204
sV\u0b3f \u0b2a
p807
I422
sV\u0b4b\u0b17 
p808
I601
sV\u0b66\u0b66
p809
I599
sV\u0b4d\u0b24\u0b4d
p810
I335
sV\u000a
I29
sV \u0b2c\u0b3f
p811
I142
sV\u0b4b\u0b30
p812
I764
sV\u0b07\u0b01
p813
I446
sV\u0b37\u0b3e
p814
I509
sV\u0b18
I417
sV \u0b0f\u0b15
p815
I262
sV\u0b28 \u0b15
p816
I413
sV\u0b28 \u0b2a
p817
I778
sV\u0b39\u0b4b
p818
I203
sV\u0b37\u0b4d\u0b20
p819
I849
sV\u0b4b\u0b07
p820
I207
sV\u0b39\u0b41
p821
I336
sV\u0b28
I7
sV\u0b2e\u0b38\u0b3f
p822
I543
sV\u0b39\u0b47
p823
I235
sV\u0b28 \u0b38
p824
I706
sV\u0b4b\u0b17
p825
I266
sV\u0b4b\u0b15
p826
I526
sV \u0b0f\u0b39
p827
I205
sV\u0b38
I10
sV\u0b4b\u0b1f
p828
I541
sV\u0b36\u0b4d\u0b30
p829
I628
sV\u0b2c\u0b38\u0b4d
p830
I877
sV\u0b4b\u0b32
p831
I604
sV\u0b19\u0b4d
p832
I62
sV\u0b05\u0b2c
p833
I817
sV\u0b48
I798
sV\u0b47 
p834
I12
sV\u0b07\u0b1b
p835
I853
sV\u0b4d\u0b28 
p836
I737
sV\u0b33\u0b28
p837
I989
sV\u0b39\u0b3f
p838
I88
sV\u0b39\u0b3e
p839
I84
sV\u0b25\u0b3e\u0b28
p840
I583
sVe
I253
sV\u0b28 
p841
I73
sV\u0b15 \u0b05
p842
I922
sV\u0b4d\u0b25\u0b3e
p843
I465
sV\u0964
I31
sV\u0b15 \u0b38
p844
I416
sV\u0b68
I247
sV\u0b15 \u0b2e
p845
I655
sV\u0b07\u0b25
p846
I166
sV\u0b4d\u0b30\u0b15
p847
I705
sV\u0b15 \u0b2a
p848
I441
sV\u0b4d\u0b24\u0b3f
p849
I162
sV\u0b15 \u0b28
p850
I890
sV\u0b4d\u0b24\u0b30
p851
I585
sV\u0b05\u0b27
p852
I536
sV\u0b5f 
p853
I76
sV\u0b47\u0b28
p854
I544
sV\u0b28\u0b3f\u0b15
p855
I958
sV\u0b4d 
p856
I209
sV\u0b41\u0b0f 
p857
I660
sV\u0b27\u0b3f
p858
I360
sV\u0b27\u0b3e
p859
I313
sV\u0b28\u0b3f\u0b1c
p860
I851
sV\u0b2d\u0b3e\u0b30
p861
I566
sV\u0b13
I106
sV\u0b2e\u0b4b
p862
I942
sV\u0b3e\u0b28 
p863
I263
sV\u0b24\u0b3e\u0b30
p864
I805
sV \u0b2c\u0b47
p865
I760
sV\u0b23
I40
sV\u0b2a\u0b30\u0b4d
p866
I656
sV\u0b28\u0b3f\u0b30
p867
I431
sV\u0b3e\u0b2c\u0b30
p868
I653
sV\u0b4d\u200c
p869
I698
sV \u0b2c\u0b4d
p870
I374
sV\u0b4d\u0b2a
p871
I324
sV\u0b2a\u0b30\u0b47
p872
I353
sV\u0b24\u0b3f\u0b15
p873
I900
sV\u0b15\u0b4d
p874
I85
sV\u0b33
I56
sV\u0b2e\u0b41\u0b16
p875
I956
sV\u0b15\u0b4b
p876
I682
sV\u0b47 \u0964
p877
I127
sV\u0b3e \u0b39
p878
I842
sV\u0b15\u0b47
p879
I439
sV\u0b15\u0b41
p880
I90
sV\u0b15\u0b43
p881
I733
sV\u0b33\u0b30\u0b47
p882
I940
sV\u0b4d\u0b30\u0b26
p883
I981
sV\u0b15\u0b3f
p884
I246
sV\u0b15\u0b3e
p885
I92
sV\u0b38\u0b39
p886
I506
sV\u0b1b\u0b28\u0b4d
p887
I745
sV\u0b4d\u0b5f\u0b2c
p888
I715
sV\u0b3e \u0b05
p889
I649
sV\u0b3f\u0b37\u0b4d
p890
I725
sV\u0b3e \u0b06
p891
I896
sV\u0b15\u0b30
p892
I53
sV\u0b15\u0b33
p893
I914
sV\u0b15\u0b32
p894
I757
sV \u0b1a\u0b3f
p895
I804
sV\u0b15\u0b2e
p896
I673
sV\u0b4d\u0b5f\u0b3e
p897
I218
sV\u0b2a\u0b30\u0b3f
p898
I352
sV \u0b2c\u0b30
p899
I570
sV\u0b3e \u0b15
p900
I286
sV \u0b2c\u0b3e
p901
I242
sV\u0b4d\u0b5f\u0b30
p902
I521
sV\u0b2f\u0b4d\u0b5f
p903
I419
sV\u0b3e \u0b13
p904
I801
sV\u0b3e \u0b2c
p905
I382
sV\u0b15\u0b1f
p906
I974
sV\u0b3e \u0b2e
p907
I573
sV\u0b37\u0b4d\u0b1f
p908
I322
sV\u0b3e \u0b28
p909
I672
sV\u0b3e \u0b2a
p910
I238
sV\u0b3e \u0b26
p911
I662
sV \u0b09\u0b2a
p912
I499
sV\u0b09\u0b24\u0b4d
p913
I955
sVu
I785
sV\u0b3e \u0b38
p914
I326
sV\u0b2c\u0b38
p915
I527
sV\u0b27\u0b4d
p916
I237
sV\u0b3e \u0b30
p917
I909
sV\u0b4d\u0b5f\u0b15
p918
I751
s.