(dp1
V\u0b9f\u0bc1\u0b95
p2
I192
sV\u000a\u0b9a
p3
I657
sV\u000a\u0b95
p4
I496
sV \u0bae\u0bbe
p5
I366
sV\u0bc7\u0b9a
p6
I750
sV\u0baf\u0bbe\u0b95
p7
I446
sV\u0bb5\u0bcd
p8
I747
sV\u000a\u0b8e
p9
I858
sV\u0b9f\u0bc8\u0baf
p10
I467
sV\u0bb5\u0bc8
p11
I271
sV\u0bc6\u0ba3\u0bcd
p12
I949
sV\u000a\u0b85
p13
I373
sV\u0bb5\u0bc7
p14
I318
sV\u000a\u0b87
p15
I157
sV\u0bb5\u0bc1
p16
I177
sV\u0bae\u0b95
p17
I519
sV 
I1
sV\u0bc7\u0bb5
p18
I953
sV\u0b9f\u0bc1\u0bb3
p19
I830
sV\u0bc7\u0bb2
p20
I553
sV\u0bc7\u0bb1
p21
I474
sV\u0bc7\u0bb0
p22
I303
sV\u000a\u0bb5
p23
I788
sV\u0bae\u0ba3
p24
I891
sV\u0bae\u0ba4
p25
I671
sV\u0bc1\u0bb3
p26
I193
sV\u000a\u0bae
p27
I393
sV\u0b9f\u0bc1\u0ba4
p28
I334
sV\u0bb1\u0bbe\u0bb0
p29
I700
sV\u0bbe\u0ba9\u0ba4
p30
I875
sV\u0bae\u0bbe
p31
I129
sV\u0bae\u0bbf
p32
I240
sV\u000a\u0ba4
p33
I629
sV\u0bae\u0bb1
p34
I269
sV\u0bae\u0bb2
p35
I814
sV\u0b87\u0bb2\u0bcd
p36
I906
sV\u0b9f\u0bc1\u0baa
p37
I771
sV\u0bc1\u0bb4
p38
I606
sV\u0bae\u0bc8
p39
I176
sV  
p40
I154
sV\u0b9f\u0bbf\u0bb2
p41
I961
sV\u0bae\u0bcd
p42
I21
sV\u0bae\u0bc0
p43
I677
sV\u0bae\u0bc1
p44
I139
sV\u0bae\u0bc2
p45
I493
sV\u0bcd
I0
sV\u0bae\u0bc6
p46
I956
sV\u0bae\u0bc7
p47
I355
sV\u0ba4\u0bc1\u0b95
p48
I461
sV\u0bbf\u0bb0\u0bbf
p49
I477
sV\u0bb0\u0bcb
p50
I958
sV\u0bcd\u0b9f\u0bc8
p51
I991
sV\u000a\u0ba8
p52
I885
sV\u0bc7\u0bb0\u0bcd
p53
I561
sV\u0bb5\u0bbf
p54
I84
sV\u0bb5\u0bbe
p55
I156
sV\u0bb5\u0bb4
p56
I531
sV\u0ba4\u0bc1\u0bae
p57
I703
sV\u0ba3\u0bcd\u0b95
p58
I779
sV\u0bb5\u0bb1
p59
I748
sV\u0bb5\u0bb0
p60
I105
sV\u0ba4\u0bca\u0b9f
p61
I595
sV\u0bb5\u0bb2
p62
I735
sV\u0ba4\u0bc1\u0bb5
p63
I528
sV\u0bb5\u0bae
p64
I936
sV\u0bb5\u0ba9
p65
I594
sV\u0bb5\u0ba8
p66
I896
sV\u0b89\u0bb3\u0bcd
p67
I323
sV\u0bb5\u0bc1\u0bae
p68
I514
sV\u0b86\u0ba3\u0bcd
p69
I521
sV\u0bb5\u0ba4
p70
I328
sV\u0baa\u0b95\u0bc1
p71
I617
sV\u0bae\u0bb1\u0bcd
p72
I309
sV\u0ba4\u0bcd 
p73
I294
sV\u0b8e\u0ba9
p74
I158
sV \u0b95\u0b9f
p75
I458
sV\u0bbf \u0b95
p76
I960
sV\u0ba4\u0bae\u0bcd
p77
I971
sV\u0baf\u0bae\u0bcd
p78
I871
sV\u0bb2\u0bbf\u0bb2
p79
I876
sV\u0b92
I166
sV\u0b86\u0b95\u0bc1
p80
I910
sV\u0ba4\u0bae
p81
I445
sV\u0bae\u0bcd\u000a
p82
I206
sV\u000a\u0b86
p83
I795
sV \u0b95\u0bbe
p84
I231
sV\u0bb5\u0bc6
p85
I358
sV \u0b95\u0bb0
p86
I676
sV \u0b95\u0bb2
p87
I622
sV\u0bb5\u0bc0
p88
I812
sV\u0b95\u0bcd
p89
I28
sV\u0bbe\u0baf\u0bcd
p90
I732
sV\u0bb2
I12
sV\u0b95\u0bc8
p91
I259
sV\u0bae\u0bcd 
p92
I31
sV\u0b95\u0bca
p93
I224
sV\u0bc2\u0bb0
p94
I612
sV\u0b95\u0bc7
p95
I792
sV\u0b95\u0bc1
p96
I48
sV\u0b95\u0bc2
p97
I442
sV\u0b95\u0bbf
p98
I75
sV\u0bc2
I131
sV \u0b87\u0bb2
p99
I563
sV\u0bc2\u0bb2
p100
I628
sV \u0b87\u0bb0
p101
I212
sV\u0bae\u0ba9
p102
I596
sV\u0b95\u0bb5
p103
I401
sV\u0b95\u0bb4
p104
I679
sV\u0b9a\u0bbf 
p105
I681
sV\u0b95\u0bb0
p106
I251
sV\u0b95\u0bb3
p107
I43
sV\u0b95\u0bb2
p108
I350
sV\u0bb3\u0bc8 
p109
I376
sV \u0b87\u0ba4
p110
I568
sV\u0b95\u0bae
p111
I374
sV \u0ba8\u0b95
p112
I993
sV \u0b95\u0bca
p113
I313
sV\u0b95\u0baa
p114
I228
sV\u0b95\u0ba4
p115
I375
sV \u0b95\u0bc1
p116
I220
sV \u0b87\u0ba8
p117
I536
sV \u0b8e\u0ba9
p118
I167
sV\u0b95\u0b9f
p119
I357
sV\u0bb3\u0bbe\u0b95
p120
I974
sV\u0bcd\u0b95\u0bb2
p121
I829
sV\u0b95\u0bbe
p122
I112
sV\u0bb1\u0ba9\u000a
p123
I776
sV\u0b95\u0b95
p124
I903
sV \u0b87\u0b9f
p125
I661
sV\u0b95\u0bc2\u0b9f
p126
I760
sV\u0bb2\u0bcd 
p127
I40
sV\u0bc6\u0ba3
p128
I952
sV\u0bb5\u0bbe\u0b95
p129
I489
sV\u0bbe\u0bae\u0bcd
p130
I578
sV\u0b86\u0bae\u0bcd
p131
I918
sV\u0bb2\u0bbe\u0bae
p132
I859
sV\u0b95\u0bcd\u0b95
p133
I37
sV\u0bcd\u0bb1\u0bc1
p134
I148
sV \u0bb5\u0bbe
p135
I478
sV \u0bb5\u0bbf
p136
I199
sV\u0bcb\u0ba9\u0bcd
p137
I663
sV\u0b87
I46
sV\u0bcb\u0ba4
p138
I499
sV \u0bb5\u0bb4
p139
I601
sV\u0baf\u0bc1\u0bae
p140
I394
sV\u0bcb\u0ba9
p141
I540
sV\u0bc1\u000a
p142
I128
sV \u0bb5\u0bb0
p143
I415
sV\u0ba4\u0baa
p144
I575
sV\u0bcb\u0bb2
p145
I881
sV\u0bcb\u0bb0
p146
I554
sV\u0bc1 \u0bae
p147
I238
sV\u0bbf\u0bb1\u0bbe
p148
I880
sV\u0b8f\u0bb1\u0bcd
p149
I851
sV\u0bcd\u0bae\u0bc8
p150
I811
sV\u0b9a\u0bbf\u0b95
p151
I804
sV\u0bc1 
p152
I23
sV \u0bb5\u0b9f
p153
I994
sV\u0bbf\u0ba8
p154
I683
sV \u0bae\u0bc1
p155
I175
sV \u0bae\u0bc0
p156
I948
sV\u0bb2\u0bbe
p157
I223
sV\u0bb2\u0bbf
p158
I205
sV \u0bae\u0bc7
p159
I543
sV\u0bb2\u0ba4
p160
I454
sV\u0baf\u0bbe\u0ba9
p161
I610
sV\u0bcb\u0b95
p162
I836
sV\u0ba8\u0b95\u0bb0
p163
I826
sV\u0bb2\u0bae
p164
I547
sV\u0bc6\u0bb3\u0bbf
p165
I670
sV\u0bcb\u0b9f
p166
I534
sV\u0b9f\u0bb2
p167
I678
sV\u0ba9\u0bc1\u0bae
p168
I648
sV\u0b99\u0bcd
p169
I95
sV\u000a\u0baa
p170
I362
sV\u0bc7
I66
sV\u0bbf \u0bb5
p171
I738
sV\u0b87\u0b9f
p172
I635
sV\u0bcb\u0ba4\u0bc1
p173
I743
sV\u0bbe\u0bb0\u0bcd
p174
I137
sV\u0b87\u0ba4\u0bc1
p175
I589
sV\u0b92\u0ba9\u0bcd
p176
I964
sV\u0ba4\u0bb2\u0bcd
p177
I571
sV\u0bb2\u0bc1
p178
I254
sV \u0bae\u0bbf
p179
I558
sV\u0b9f\u0bc1\u0bae
p180
I297
sV \u0bae\u0bb1
p181
I307
sV\u0bb2\u0bcd
p182
I27
sV\u0bbe\u0b95\u0bc1
p183
I593
sV\u0bb2\u0bc8
p184
I155
sV\u0bbf\u0b9a
p185
I492
sV\u0b87\u0bb5
p186
I344
sV\u0b87\u0bb2
p187
I524
sV\u0b87\u0bb0
p188
I195
sV\u0b9a\u0bcd 
p189
I464
sV\u0b95\u0b9f\u0bcd
p190
I619
sV\u0baf 
p191
I164
sV\u0bb4\u0bc1\u0ba4
p192
I780
sV\u0bb1\u0bbf\u0baf
p193
I546
sV\u0b87\u0ba4
p194
I287
sV\u0b87\u0baf
p195
I810
sV\u0bc8 
p196
I72
sV \u0bb5\u0bc7
p197
I566
sV \u0bae\u0b95
p198
I660
sV\u0b9f\u0bb0
p199
I523
sV\u0b87\u0ba8
p200
I326
sV\u0bc1 \u0baa
p201
I216
sV\u0bc1 \u0ba8
p202
I423
sV\u0b92\u0bb0
p203
I290
sV\u0bae\u0bc7\u0bb2
p204
I763
sV\u0bcd\u000a\u0b85
p205
I600
sV\u0bb5\u0b9f
p206
I570
sV\u0bc1 \u0ba4
p207
I383
sV\u0ba4\u0bbf 
p208
I440
sV\u0b95\u0bca\u0bb3
p209
I873
sV\u0b9c
I441
sV\u0bc1 \u0bb5
p210
I232
sV\u0bc8\u0baa
p211
I208
sV\u0b9a\u0bbf\u0bb2
p212
I805
sV\u0bcd\u0ba8\u0bcd
p213
I497
sV\u0bc1 \u0b8e
p214
I551
sV\u0bc6\u0ba9
p215
I583
sV\u0bc1 \u0b86
p216
I730
sV\u0bc1 \u0b87
p217
I426
sV\u0bc1 \u0b85
p218
I330
sV\u0bc1 \u0b9a
p219
I360
sV\u0bb5\u0b95
p220
I712
sV\u0baf\u0bbf\u0bb0
p221
I972
sV\u0bcd\u0b95 
p222
I550
sV\u0bca\u0bb3\u0bcd
p223
I879
sV\u0bc1 \u0b92
p224
I970
sV\u0bcd\u0b9a\u0bcd
p225
I791
sV \u0b87\u0baf
p226
I856
sV\u0bb1\u0bc8\u0baf
p227
I843
sV\u0bc1 \u0b95
p228
I270
sV\u0baa\u0ba4\u0bcd
p229
I854
sV\u0ba9\u0bcd 
p230
I74
sV\u0bc8 \u0ba8
p231
I745
sV\u0bc8 \u0bae
p232
I516
sV\u0b85\u0bb1\u0bbf
p233
I739
sV\u0b9a\u0bbf\u0bb1
p234
I647
sV\u0bbf\u0baf\u0bc8
p235
I962
sV\u0bb5\u0bc1\u0b95
p236
I801
sV\u0bcd\u0b9a\u0bbf
p237
I288
sV\u0baa\u0ba4\u0bc1
p238
I883
sV\u0ba4 
p239
I160
sV\u0bc8 \u0ba4
p240
I874
sV\u0b92\u0bb0\u0bc1
p241
I312
sV\u0bc1 \u0b89
p242
I662
sV\u0bb0\u0bcd\u0b9a
p243
I989
sV\u0bb3\u0bbf
p244
I123
sV\u0bc8 \u0bb5
p245
I443
sVa
I549
sV\u0bcd\u0bb1\u0ba4
p246
I828
sV\u0bb1\u0ba4\u0bc1
p247
I283
sV\u0bcd\u0bb1\u0ba9
p248
I513
sV\u0b95\u0bbf\u0ba9
p249
I335
sV\u0b95\u0bbf\u0baf
p250
I339
sV\u0bc8 \u0b85
p251
I555
sV\u0bc8 \u0b9a
p252
I714
sV\u0b95\u0bbf\u0bb1
p253
I247
sV\u0b9f\u0bcd 
p254
I777
sV\u0bc8\u0ba4
p255
I356
sV\u0bcd  
p256
I275
sV\u0baf\u0bb0\u0bcd
p257
I541
sV\u0baa\u0bcd 
p258
I186
sV\u0b95\u0bca\u0ba3
p259
I418
sV\u0ba9\u0bbe\u0bb0
p260
I755
sV\u0bcd\u0bb1\u0bbf
p261
I369
sV\u0bcd\u0bb1\u0bbe
p262
I623
sV\u0b9f\u0bc1\u0bb5
p263
I998
sV\u0bc1\u0bb5\u0ba4
p264
I611
sV\u0bae\u0bc1\u0ba4
p265
I505
sV\u0bb0\u0bbf\u0baf
p266
I422
sV\u0ba4\u0bbf\u0bb2
p267
I200
sV\u0ba4\u0bbf\u0bb0
p268
I248
sV\u0ba4\u0bbf\u0bb1
p269
I734
sV\u0bcd\u0baa\u0bcb
p270
I897
sV \u0ba4\u0bc6
p271
I945
sV\u0bc1\u0bb5\u0bb0
p272
I888
sV\u0bc1\u0ba4\u0bb2
p273
I483
sV\u0ba4\u0bbf\u0ba9
p274
I424
sV\u0ba4\u0bbf\u0baf
p275
I233
sV \u0baa\u0bcb
p276
I364
sV \u0baa\u0bca
p277
I494
sV\u0bb2\u0bbf\u0baf
p278
I977
sV\u0bb5\u0bb1\u0bcd
p279
I866
sV \u0baa\u0bc7
p280
I641
sV \u0baa\u0bc6
p281
I241
sV \u0baa\u0bc1
p282
I456
sV\u0bc1\u0bb5\u0bbf
p283
I713
sV\u0bb0\u0bc1\u0bb5
p284
I459
sV\u0baa\u0b9f\u0bc1
p285
I184
sV\u0ba4\u0bcd
p286
I35
sV\u0ba4\u0bca
p287
I298
sV\u0ba4\u0bcb
p288
I761
sV\u0bcd\u0b95\u0bb3
p289
I77
sV\u0bc6\u0bb1\u0bcd
p290
I501
sV\u0ba4\u0bc6
p291
I721
sV\u0ba4\u0bc7
p292
I416
sV\u0bcd\u0b95\u0bbf
p293
I161
sV\u0bcd\u0b95\u0bbe
p294
I272
sV\u0baa\u0b9f\u0bcd
p295
I182
sV\u0ba4\u0bc1
p296
I29
sV\u0bb1
I15
sV\u0baa\u0bbf\u0bb1
p297
I831
sV\u0bc8 \u0baa
p298
I626
sV\u0bae\u0bc1\u0b95
p299
I754
sV\u0b92\u0ba9
p300
I965
sV\u0bcd\u0b95\u0bae
p301
I758
sV\u0bae\u0bc1\u0b9f
p302
I895
sV\u0bcd\u0b95\u0baa
p303
I301
sV\u0bc1
I3
sV \u0baa\u0b9f
p304
I522
sV\u0bcd \u0b95
p305
I76
sV\u0bcd \u0b92
p306
I413
sV\u0ba4\u0ba9
p307
I194
sV\u0ba9\u0bcd\u0ba9
p308
I319
sV\u0ba4\u0ba4
p309
I372
sV\u0ba9\u0bcd\u0baa
p310
I299
sV\u0bcd \u0b9a
p311
I133
sV\u0ba9\u0bcd\u0bae
p312
I937
sV\u0ba9\u0bcd\u0bb1
p313
I126
sV\u0ba4\u0bbf
p314
I45
sV\u0bcd \u0b85
p315
I144
sV\u0bcd\u0b95\u0bc1
p316
I90
sV\u0bae\u0bb0
p317
I646
sV\u0bcd \u0b8e
p318
I219
sV\u0ba4\u0bb5
p319
I579
sV\u0ba4\u0bb2
p320
I274
sV\u0bcd\u0b95\u0bc8
p321
I598
sV\u0ba4\u0bb0
p322
I471
sV\u0bcd \u0b89
p323
I239
sV\u0bcd\u0bb1 
p324
I346
sV \u0baa\u0bbf
p325
I246
sV\u0bcd \u0bb5
p326
I149
sV\u0bbf\u0bb0\u0bc1
p327
I235
sV\u0bb2\u0bae\u0bcd
p328
I845
sV\u0bbf\u0bb0\u0bcd
p329
I720
sV \u0baa\u0bb0
p330
I872
sV \u0baa\u0bb2
p331
I533
sV\u0baa\u0bcd\u0baa
p332
I50
sV\u0b95\u0baa\u0bcd
p333
I236
sV\u0bcd \u0ba4
p334
I107
sV\u0bb0\u0bae\u0bcd
p335
I582
sV\u0bb1\u0baa\u0bcd
p336
I951
sV\u0bcd \u0bae
p337
I111
sV\u0b9a\u0bbf\u0baf
p338
I449
sV\u0bcd \u0baa
p339
I65
sV\u0bcd \u0ba8
p340
I196
sV\u0baf\u0bcd
p341
I221
sV\u0bb3\u0bbf\u0bb2
p342
I276
sV\u0b86
I106
sV\u0baf\u0bc7
p343
I715
sV\u0b9f\u0bb0\u0bcd
p344
I636
sV\u0bb5\u0bbf\u0ba9
p345
I633
sV\u0bc1\u0b95\u0bcd
p346
I119
sV\u0baf\u0bc1
p347
I265
sV\u0bb5\u0bbf\u0bb3
p348
I926
sV\u0bc8\u0baf\u0bbe
p349
I352
sV \u0b86\u0ba3
p350
I517
sV\u0bb5\u0bbf\u0bb0
p351
I786
sV\u0bc1\u0b95
p352
I57
sV\u0bb5\u0bb3
p353
I723
sV\u0bc8\u0baf\u0bbf
p354
I286
sV\u0bc8\u0baa\u0bcd
p355
I249
sV\u0bc1\u0b9a
p356
I914
sV\u0bc1\u0b9f
p357
I202
sV \u0b86\u0bae
p358
I957
sV\u0b95 \u0bae
p359
I816
sV\u0bc7\u0bb1\u0bcd
p360
I798
sV \u0b86\u0b95
p361
I429
sV\u0bc1\u0ba4
p362
I91
sV\u0bbf\u0ba8\u0bcd
p363
I947
sV\u0bc1\u0ba9
p364
I591
sV\u0bc1\u0ba8
p365
I214
sV\u0bc1\u0baa
p366
I187
sV\u0bc1\u0bae
p367
I33
sV\u0bc1\u0bb1
p368
I180
sV\u0bc1\u0bb0
p369
I419
sV\u0bbf\u0ba9\u0bcd
p370
I85
sV\u0bc1\u0bb2
p371
I954
sV\u0bc1\u0bb5
p372
I140
sV\u0b95\u0bcd 
p373
I181
sV\u0bbf\u0ba9\u0bc8
p374
I915
sV\u0baf\u0bcd\u0ba4
p375
I955
sV\u0baa\u0b9f\u0bbf
p376
I912
sV\u0bb5\u0bbf\u0b9f
p377
I608
sV\u0bc8\u0b9a
p378
I737
sV\u0bbf\u0ba9\u0bbe
p379
I653
sV\u0b99\u0bcd\u0b95
p380
I99
sV\u0bc6
I61
sV\u0ba4\u0bc1\u0bb3
p381
I850
sV\u0bbf \u0b9a
p382
I985
sV\u0bc8\u0b95
p383
I138
sV\u0b9a\u0bcd\u0b9a
p384
I320
sV\u0bbf \u0b85
p385
I919
sV\u0b9f\u0ba9\u0bcd
p386
I529
sV\u0baf\u0b95
p387
I819
sV\u0b85\u0bb5\u0bb0
p388
I507
sV\u0bcd\u0b9f 
p389
I391
sV\u0baf\u0bae
p390
I498
sV\u0bb3 
p391
I484
sV\u0baf\u0baa
p392
I783
sV\u0baf\u0ba9
p393
I503
sV\u0baf\u0bbf\u0bb2
p394
I197
sV\u0bbf\u0b9f\u0bcd
p395
I482
sV\u0baa\u0bb2 
p396
I916
sV\u0baf\u0ba4
p397
I432
sV\u0baf\u0bc8 
p398
I699
sV\u0bb1\u0bbf\u0baa
p399
I963
sV\u0bc8\u0bb5
p400
I436
sV\u0baf\u0bbf
p401
I124
sV\u0baf\u0bbe
p402
I145
sV\u0bc1\u0b95\u0bb3
p403
I256
sV \u0b9a\u0bbe
p404
I695
sV\u0bc8\u0baf
p405
I87
sV\u0bcb\u0baf
p406
I932
sV\u0b95\u0bbe\u0ba9
p407
I886
sV\u0bbf \u0bae
p408
I701
sV\u0baf\u0bbf\u0ba9
p409
I439
sV\u0baf\u0bb2
p410
I402
sV\u0bc1\u0b95\u0bbf
p411
I227
sV\u0baf\u0bb0
p412
I378
sV\u0bb5\u0bcd\u0bb5
p413
I869
sV\u0ba4\u0bcd\u0ba4
p414
I47
sV\u0bb4\u0bc8
p415
I901
sV\u0ba3\u0bcd\u0ba3
p416
I938
sV\u0bc1\u0ba8\u0bcd
p417
I252
sV\u0bb0\u0ba3\u0bcd
p418
I931
sV\u0ba4\u0ba4\u0bc1
p419
I599
sV\u0b95\u0bb5\u0bc1
p420
I680
sV\u000a\u0b87\u0ba8
p421
I644
sV\u0b9a\u0bc7\u0bb0
p422
I959
sV\u0b85\u0bae\u0bc8
p423
I509
sV\u0bae\u0bc8\u0baf
p424
I538
sV\u0bc1\u0bb1\u0bbf
p425
I602
sV\u000a\u0b87\u0ba4
p426
I481
sV\u0b95\u0bbe\u0bb2
p427
I491
sV\u0ba3\u0bcd\u0b9f
p428
I134
sV\u0ba8\u0bcd
p429
I67
sV\u0bbf\u0baf\u0bc1
p430
I688
sV\u0ba8\u0bc0
p431
I649
sV\u0bb5\u0bc6\u0bb3
p432
I631
sV\u0bae\u0bcd\u0baa
p433
I277
sV\u000a\u0b87\u0bb5
p434
I560
sV\u0baf\u0ba4\u0bcd
p435
I924
sV\u0bcd\u0ba4\u0bc1
p436
I110
sV\u0ba8\u0bbe
p437
I329
sV\u0ba8\u0bbf
p438
I172
sV\u0bc1\u0bb1\u0bc8
p439
I406
sV\u0bb2\u0bcd\u0b95
p440
I597
sV\u0bcb
I80
sV\u0bb1\u0bcd\u0b95
p441
I258
sV\u0b85\u0bb2\u0bcd
p442
I893
sV\u0b95 
p443
I120
sV\u0bb3\u0bc1\u0b95
p444
I500
sV\u0bb3\u0bc8\u0baf
p445
I778
sV\u0bb2\u0bcd\u0bb2
p446
I244
sV\u0ba8\u0b9f
p447
I468
sV\u0bb2\u0bcd\u0bb5
p448
I725
sV\u0bb1\u0bcd\u0bb1
p449
I108
sV  \u0baa
p450
I860
sV  \u0bae
p451
I934
sV\u0ba8\u0b95
p452
I757
sV\u0bb1\u0bcd\u0baa
p453
I457
sV\u0ba8\u0bcd\u0ba4
p454
I69
sV\u0b95\u0bae\u0bcd
p455
I556
sV\u0b9a\u0bcd
p456
I190
sV\u0b9a\u0bc8
p457
I625
sV\u0b8e\u0ba9\u0bcd
p458
I207
sV\u0bc8 \u0b87
p459
I913
sV\u0b9a\u0bc6
p460
I201
sV\u0bbf\u0baa\u0bcd
p461
I263
sV\u0b9a\u0bc1
p462
I260
sV\u0bb3\u0bc8
p463
I183
sV\u0bb3\u0bcd
p464
I55
sV\u0ba4\u0bb1\u0bcd
p465
I581
sV\u0bb3\u0bc1
p466
I264
sV  \u0b86
p467
I782
sV\u0ba9\u0bbf\u0baf
p468
I921
sV\u0b8f\u0bb1
p469
I802
sV\u0b95\u0bbf\u0bb2
p470
I790
sV\u0b8e\u0bb4
p471
I983
sV \u0b95\u0ba3
p472
I796
sV\u0bca\u0b9f\u0bb0
p473
I857
sV\u0bb0
I9
sV\u0bb2 
p474
I387
sV\u0bc7 
p475
I280
sV\u0baf\u0baa\u0bcd
p476
I832
sV\u0bb0 
p477
I863
sV\u0bc0
I150
sV \u0ba4
p478
I60
sV \u0baa
p479
I30
sV \u0ba8
p480
I81
sV \u0bae
p481
I44
sV\u0ba4 \u0baa
p482
I986
sV\u0ba4\u0bc1\u000a
p483
I132
sV \u0bb0
p484
I742
sV \u0b95\u0bbf
p485
I460
sV\u0bcd\u0b95\u0ba4
p486
I969
sV \u0bb5
p487
I56
sV\u0ba9\u0bbe\u0bb2
p488
I686
sV\u0b9a\u0bae
p489
I576
sV \u0b86
p490
I121
sV \u0b87
p491
I71
sV \u0b85
p492
I62
sV\u0bbe\u0bb3\u0bb0
p493
I838
sV\u0b9f\u0bcd\u0b9a
p494
I592
sV \u0b89
p495
I127
sV \u0b8e
p496
I115
sV \u0b8f
p497
I511
sV\u0bb3\u0bb5
p498
I696
sV \u0b92
p499
I191
sV\u0b9a\u0bbe
p500
I351
sV\u0b9a\u0bbf
p501
I116
sV\u0bc8 \u0b95
p502
I674
sV \u0b95
p503
I38
sV \u0b9a
p504
I70
sV\u0bc8\u0ba8
p505
I512
sV\u0b9a\u0bb0
p506
I759
sV \u0b9f
p507
I803
sV \u0b9c
p508
I968
sV\u0bb3\u0ba4
p509
I399
sV\u0bb0\u0bc8 
p510
I711
sV\u0b85
I53
sV\u0bbe\u0bb0
p511
I100
sV\u0bc1\u0ba4\u0bbf
p512
I348
sV\u0bbe\u0bb2
p513
I146
sV\u0bbe\u0bb3
p514
I386
sV\u0bb3\u0bcd\u0bb3
p515
I143
sV\u0bbe\u0bb5
p516
I306
sV\u0bb0\u0bbf
p517
I114
sV\u0bbe\u0ba8
p518
I890
sV\u0bbe\u0ba9
p519
I117
sV\u0bbe\u0baa
p520
I824
sV\u0b95
I2
sV\u0bbe\u0bae
p521
I302
sV\u0bbe\u0baf
p522
I381
sV\u0bc6\u0bb0\u0bbf
p523
I773
sV\u0bbe\u0ba3
p524
I395
sV\u0bbe\u0ba4
p525
I273
sV\u0bae\u0bc1\u0ba9
p526
I837
sV\u0bbe\u0b9a
p527
I664
sV\u0bb5\u0bc8 
p528
I604
sV\u0bbe\u0b9f
p529
I163
sV\u0b95\u0bbf\u0bb0
p530
I806
sV\u0b9f\u0baa\u0bcd
p531
I807
sV\u0baf\u0bcd\u0baf
p532
I894
sV\u0bbe\u0b95
p533
I82
sV\u0ba9\u0bb0\u0bcd
p534
I338
sV\u0b95\u0bc1\u0bb1
p535
I404
sV\u0bb5
I14
sV\u0bb3\u0bb0\u0bcd
p536
I682
sV\u0bb2\u0bc8\u0baf
p537
I624
sV\u0bc8\u0ba4\u0bcd
p538
I388
sV\u0b9a\u0ba9
p539
I907
sV\u0b85\u0ba4\u0bbf
p540
I753
sV\u0bb0\u0bcd\u0b95
p541
I171
sV\u0bcd\u0bb2\u0bbe
p542
I976
sV\u0bcd\u000a\u0b87
p543
I315
sV\u0b95\u0bcb
p544
I377
sV \u0b89\u0bb0
p545
I705
sV\u0bae\u0bbf\u0b95
p546
I717
sV \u0b89\u0bb3
p547
I331
sV\u0b9a\u0bc1 
p548
I908
sV\u0b95\u0b95\u0bcd
p549
I973
sV\u0bcd\u000a\u0b95
p550
I946
sV\u0b95 \u0b87
p551
I580
sV\u0bb0\u0bbf\u0b95
p552
I574
sV\u0bb3\u0bc1\u0bae
p553
I655
sV\u0bbe\u0b9f\u0bcd
p554
I296
sV\u0bc6\u0bb0\u0bc1
p555
I733
sV\u0bb0\u0bbf\u0ba9
p556
I922
sV\u0bb2\u0bc1\u0bae
p557
I349
sV\u0b95\u0bb2\u0bcd
p558
I846
sV\u0bcd\u000a\u0bae
p559
I728
sV\u0bc8\u0baf\u0bc1
p560
I487
sV\u0bbe\u0b9f\u0bc1
p561
I675
sV\u0bcd\u000a\u0baa
p562
I659
sV\u0bb0\u0bcd\u0ba4
p563
I704
sV\u0bae\u0bc1\u0bb1
p564
I672
sV\u0ba9\u0bc8 
p565
I781
sV\u0bca\u0ba3\u0bcd
p566
I411
sV\u0bc1\u0ba4\u0bcd
p567
I169
sV\u0bb0\u0bcd\u0ba8
p568
I565
sV\u0bb0\u0bcd\u0baa
p569
I643
sV\u0bcd\u0bb2\u0bc8
p570
I930
sV\u0bcd\u0ba4\u0bc8
p571
I367
sV\u0bcd\u0b9f\u0bae
p572
I789
sV\u0bc8\u0baf 
p573
I772
sV\u0bcd\u0ba4\u0bcd
p574
I698
sV\u0bb0\u0b9a
p575
I530
sV\u0b95\u0bc1\u0bae
p576
I178
sV\u0bcd\u0b9f\u0ba4
p577
I384
sV\u0bb0\u0bc1 
p578
I281
sV\u0b95 \u0b85
p579
I900
sV\u0bb5\u0bb0\u0bcd
p580
I204
sV\u0bcd\u0b9f\u0bbf
p581
I222
sV\u0bcd\u0b9f\u0bbe
p582
I480
sV\u0b9a
I22
sV\u0bbf\u0bb0\u0bbe
p583
I808
sV\u0b95\u0ba4\u0bcd
p584
I485
sV\u0bcd\u0bb3\u0ba4
p585
I448
sV\u0bb5\u0bb0\u0bc8
p586
I751
sV\u0bbf\u0bb1\u0bc1
p587
I740
sV\u0bb0\u0bb5
p588
I849
sV\u0bbf\u0bb1\u0bcd
p589
I465
sV\u0baa
I7
sV\u0bb0\u0bbe
p590
I188
sV\u0b87\u0bb0\u0bc1
p591
I282
sV\u0bb0\u0ba3
p592
I495
sVr
I797
sV \u0b85\u0b9f
p593
I621
sV\u0bb0\u0ba4
p594
I407
sV\u0bb5\u0bbe\u0ba9
p595
I979
sV\u0bb0\u0baa
p596
I722
sV\u0bc1\u0bb5\u0bbe
p597
I537
sV\u0bb0\u0bae
p598
I421
sV\u0b95\u0bb3\u0bc8
p599
I255
sV\u0ba4\u0bc8\u0baf
p600
I984
sV\u0bbf\u0bb1\u0ba4
p601
I337
sV\u0ba4\u0bbe\u0bb0
p602
I475
sV\u0ba4\u0bbe\u0bb2
p603
I765
sV\u0bca
I88
sV\u0ba8\u0bbe\u0b9f
p604
I613
sV\u0bca\u0ba4
p605
I867
sV\u0b85\u0b9f
p606
I572
sV\u0bb0\u0bc1
p607
I52
sV\u0bbf\u0baf 
p608
I213
sV\u0baa\u0bc7\u0bb0
p609
I827
sV\u0ba8\u0bbf\u0bb2
p610
I427
sV\u0bb0\u0bc8
p611
I292
sV\u0bb5\u0bb0\u0bc1
p612
I520
sV\u0baa\u0bbe\u0b9f
p613
I476
sV\u0baa\u0bc1 
p614
I463
sV\u0bb0\u0bcd
p615
I32
sV\u0ba4\u0bbe\u0b95
p616
I525
sV\u0bb5\u0bbe\u0bb0
p617
I889
sV\u0b85\u0bae
p618
I371
sV\u0b85\u0ba9
p619
I768
sV\u0ba4\u0bc8
p620
I215
sV\u0bcd\u0b9f\u0bcd
p621
I992
sV\u0b85\u0ba4
p622
I347
sV\u0bcd\u0b9f\u0bc1
p623
I136
sV\u0ba8\u0bbf\u0bb1
p624
I654
sV\u0bb0\u0ba4\u0bcd
p625
I694
sV\u0bcd\u0ba4\u0ba4
p626
I431
sV\u0bb1 
p627
I295
sV\u0baa\u0bbe\u0bb0
p628
I911
sV\u0bcd\u0ba4\u0bbe
p629
I311
sV\u0bcd\u0ba4\u0bbf
p630
I97
sV\u0bc1\u000a\u0bae
p631
I928
sV\u0baa\u0bbf\u0ba9
p632
I486
sV\u0b85\u0bb5
p633
I341
sV\u0bca\u0bb2
p634
I764
sV\u0b85\u0bb1
p635
I620
sV\u0b85\u0bb0
p636
I470
sV\u0b85\u0bb2
p637
I668
sV\u0ba9\u0bbf
p638
I257
sV\u0ba9\u0bbe
p639
I289
sV\u0bbf\u0b95\u0bb3
p640
I317
sV\u0ba9\u0bb0
p641
I293
sV \u0b95\u0bcb
p642
I690
sV\u0b8f
I451
sV\u0b9f\u0bae\u0bcd
p643
I559
sV\u0b86\u0ba3
p644
I506
sV\u0ba4\u0bbf\u0b95
p645
I382
sV\u0ba9\u0ba4
p646
I412
sV\u0b9f
I10
sV\u0ba3\u0bae
p647
I815
sV\u0baa\u0bbf\u0bb0
p648
I433
sV\u0bb0\u0bcd\u0bb5
p649
I724
sV\u0ba4\u0bbe\u0ba9
p650
I833
sV\u0bb1\u0bc8 
p651
I818
sV\u0baf
I18
sV\u0bc0\u0b9f
p652
I817
sV\u0bae\u0bca
p653
I927
sV\u0b95\u0ba3
p654
I618
sV\u0bbe\u0ba9\u0bcd
p655
I444
sV\u0bc1\u000a\u0b87
p656
I408
sV\u0bbf
I4
sV\u0b9f 
p657
I304
sV\u0bcd\u0ba4\u0baa
p658
I767
sV \u0b85\u0bae
p659
I389
sV\u0b9a\u0bc7
p660
I616
sV \u0b85\u0ba9
p661
I842
sV \u0b85\u0ba4
p662
I435
sV\u0bc1\u0ba9\u0bcd
p663
I909
sV\u0bcd\u0ba4\u0ba9
p664
I809
sV \u0b85\u0bb5
p665
I428
sV\u0bc2\u0b9f
p666
I586
sV \u0b85\u0bb0
p667
I508
sV \u0b85\u0bb1
p668
I640
sV \u0b85\u0bb2
p669
I708
sV\u0bbf 
p670
I104
sV\u0bc8\u0baf\u0bc8
p671
I719
sV\u0bc1\u0b9f\u0bbf
p672
I692
sV\u0bbf \u0baa
p673
I835
sVn
I799
sV\u0ba9\u0bc8
p674
I310
sV\u0baf\u0bb2\u0bcd
p675
I535
sV\u0ba9\u0bcd
p676
I25
sV\u0bc2\u0bb1
p677
I813
sV\u0bbf\u0b95\u0bcd
p678
I170
sV\u0b86\u0b95\u0bbf
p679
I834
sV\u0ba9\u0bc1
p680
I452
sV\u0bb0\u0bc1\u0bb3
p681
I966
sV\u0bc1\u0b9f\u0ba9
p682
I609
sV\u0b89\u0bb0\u0bc1
p683
I925
sV\u0bcd\u0ba4
p684
I20
sV\u0bc8\u0ba8\u0bcd
p685
I587
sV\u0bbe\u0b95\u0bcd
p686
I434
sV\u0bcd\u0ba3
p687
I746
sV\u0bcd\u0baf
p688
I710
sV\u0bcd\u0bae
p689
I314
sV\u0bcd\u0ba9
p690
I291
sV\u0bcd\u0ba8
p691
I354
sV\u0bcd\u0baa
p692
I26
sV\u0bcd\u0bb5
p693
I185
sV\u0bbf\u0bb2\u0bbf
p694
I687
sV\u0bcd\u0bb1
p695
I58
sV\u0bb1\u0bc1 
p696
I278
sV\u0bcd\u0bb3
p697
I142
sV\u0bcd\u0bb2
p698
I209
sV\u0b95\u0bc1 
p699
I162
sV\u0bcd\u0bb3 
p700
I527
sV\u0bb4\u0bbf
p701
I392
sV\u0ba4
I5
sV\u0b89\u0b9f
p702
I997
sV \u0b9a\u0bc7
p703
I787
sV \u0b9a\u0bc6
p704
I225
sV \u0b9a\u0bc1
p705
I603
sV\u0bc0\u0bb0
p706
I564
sV\u0bcd\u0b95
p707
I16
sV \u0baa\u0b95
p708
I645
sV\u0bb4
I89
sV\u0bcb\u0b9f\u0bcd
p709
I855
sV\u0bcd\u0b9f
p710
I36
sV\u0bb4\u0b95
p711
I697
sV\u0bcd\u0b9a
p712
I130
sV\u0ba4\u0bbe
p713
I141
sV \u0b9a\u0bae
p714
I920
sV\u0b95\u0bc8 
p715
I774
sV\u0bae\u0bc8 
p716
I987
sV \u0b9a\u0bbf
p717
I321
sV\u0bb4\u0bcd
p718
I390
sV\u0bbe\u0bb2\u0bcd
p719
I261
sV\u0bb4\u0bc1
p720
I363
sV\u0bcd \u0b86
p721
I218
sV\u0bbf\u0bb2\u0bcd
p722
I63
sV\u0bbf\u0bb5\u0bbf
p723
I939
sV\u0bbf\u0bb2\u0bc8
p724
I510
sV\u0bcd \u0b87
p725
I135
sVi
I726
sV\u0b89\u0bb0
p726
I685
sV\u0b89\u0bb3
p727
I316
sV\u0bbf\u0bb2\u0bc1
p728
I607
sV\u0bae\u0b95\u0bcd
p729
I821
sV\u0bb5\u0ba4\u0bc1
p730
I785
sV\u0baa\u0bcb\u0ba9
p731
I848
sV\u0b9f\u0ba4\u0bc1
p732
I605
sV\u0baa\u0bcb\u0ba4
p733
I650
sV\u0b89\u0ba3
p734
I967
sV\u0bbe\u0b95\u0bb5
p735
I822
sV\u0bb1\u0bc1\u0bb5
p736
I749
sV\u0bcd 
p737
I6
sV\u0bb2\u0b95
p738
I567
sV\u0b89
I122
sV\u0bae\u0bbe\u0b95
p739
I405
sV\u0b95\u0bc1\u0bb4
p740
I940
sV\u0bb2\u0bc8\u0b95
p741
I769
sV\u0bcd\u0b95\u0bcd
p742
I736
sV\u0b95\u0bc1\u0baa
p743
I917
sV\u0bcd\u0bb3\u0ba9
p744
I652
sV\u0bc8\u0b95\u0bb3
p745
I332
sV\u0b99
I94
sV\u0baa\u0baf\u0ba9
p746
I800
sV\u0bb1\u0bc1\u0bae
p747
I262
sV\u0bb0\u0bbe\u0b95
p748
I709
sV\u0b95\u0bc1\u0ba4
p749
I417
sV\u0bb1\u0bc1\u0baa
p750
I990
sV\u0bb1\u0bc1\u0b95
p751
I669
sV\u0bcd\u0baa\u0bc1
p752
I211
sV\u0b95\u0bc1\u0b9f
p753
I943
sV\u0ba9
I13
sV\u0bcd\u0baa\u0bcd
p754
I941
sV\u0b95\u0bc1\u0b95
p755
I923
sV\u0bae\u0bbe\u0bb1
p756
I865
sV\u0bcd\u000a
p757
I83
sV\u0bbe\u0bb1
p758
I447
sV\u0bae\u0bbe\u0ba9
p759
I469
sV\u0bb9
I950
sV\u0ba4\u0bb1
p760
I544
sV \u0b8f\u0bb1
p761
I839
sV\u0bcd\u0baa\u0ba4
p762
I340
sV\u0b95\u0bc8\u0baf
p763
I573
sV\u0b9f\u0bc1 
p764
I229
sV\u0baf\u0ba9\u0bcd
p765
I638
sV\u0bc6\u0b9f
p766
I707
sV\u0bbe\u0bb5\u0bbf
p767
I729
sV \u0baa\u0bbe
p768
I343
sV\u0bcd\u0baa\u0bb0
p769
I929
sV\u0bbf\u0baf\u0bb0
p770
I995
sV\u0bb2\u0bc8 
p771
I502
sV\u0bcd\u0baa\u0bbe
p772
I322
sV\u0bcd\u0baa\u0bbf
p773
I279
sV\u0b9f\u0bbf 
p774
I539
sV\u0bc6\u0bb0
p775
I359
sV\u0bc6\u0bb1
p776
I385
sV\u0bc6\u0bb2
p777
I716
sV\u0bc6\u0bb3
p778
I590
sV\u0bc8\u0b95\u0bcd
p779
I210
sV\u0bc8 \u0b8e
p780
I868
sV\u0bbe\u0b95 
p781
I159
sV\u0b95 \u0bb5
p782
I689
sVt
I884
sV\u0b87\u0ba8\u0bcd
p783
I325
sV\u0bcd\u0baa\u0b9f
p784
I98
sV\u0bc6\u0baf
p785
I230
sV\u0baa\u0bc6\u0baf
p786
I825
sV\u0b86\u0b95
p787
I400
sV\u0b9f\u0b99
p788
I585
sV\u0bcd\u0bb0
p789
I684
sV\u0bc1\u0bae\u0bcd
p790
I42
sV\u0b9f\u0b95
p791
I770
sV\u0ba9\u0bae
p792
I861
sV\u0bb0\u0b99\u0bcd
p793
I996
sV\u0b8e
I103
sV\u0ba9 
p794
I165
sV\u0baa\u0bc6\u0bb1
p795
I472
sV\u0baa\u0bc6\u0bb0
p796
I545
sV\u0b9e
I718
sV\u0b9f\u0bbf
p797
I101
sV\u0b9f\u0bbe
p798
I353
sV\u0b95\u0bb3\u0bc1
p799
I305
sV\u0b95\u0bb3\u0bcd
p800
I109
sV \u0baa\u0baf
p801
I557
sV\u0bae
I8
sV\u0b9f\u0bae
p802
I397
sV\u0ba9\u000a
p803
I396
sV\u0b9f\u0baa
p804
I693
sV\u0b9f\u0ba9
p805
I365
sV\u0ba9\u0bcd\u0b95
p806
I933
sV\u0b9f\u0ba4
p807
I245
sV\u0bb0\u0b99
p808
I999
sV\u0b9f\u0bbf\u0baf
p809
I403
sV\u0b86\u0bae
p810
I899
sV\u0bbe
I11
sV\u0bc0\u0ba4
p811
I975
sV \u0ba8\u0b9f
p812
I504
sV\u0bb8\u0bcd 
p813
I794
sV\u0bbf\u0bb5
p814
I268
sV\u0bbf\u0bb4
p815
I526
sV\u0bbf\u0bb3
p816
I577
sV\u0bbf\u0bb2
p817
I41
sV\u0bbf\u0bb1
p818
I113
sV\u0bbf\u0bb0
p819
I93
sV\u0bbf\u0baf
p820
I49
sV\u0bbf\u0bae
p821
I490
sV\u0b9f\u0bcd
p822
I54
sV\u0bbf\u0baa
p823
I203
sV\u0bbf\u0ba9
p824
I64
sV\u0b9f\u0bc8
p825
I198
sV\u0b95\u0bb3\u0bbf
p826
I174
sV\u0b95\u0bb3\u0bbe
p827
I666
sV\u0bbe\u0ba9 
p828
I217
sV\u0bbf\u0ba4
p829
I189
sV \u0bb5\u0bc6
p830
I430
sV\u0b9f\u0bc1
p831
I59
sV\u0ba9\u0ba4\u0bc1
p832
I615
sV\u0bbf\u0b9f
p833
I173
sV\u0ba4\u0b95
p834
I727
sV \u0ba8\u0bbf
p835
I242
sV \u0ba8\u0bbe
p836
I479
sV\u0bca\u0bb0\u0bc1
p837
I562
sV\u0bb8\u0bcd
p838
I333
sV\u0bbf\u0b95
p839
I86
sV\u0bb5\u0ba8\u0bcd
p840
I942
sVo
I844
sV\u0bae\u0bc8\u0baa
p841
I944
sV\u0ba4\u0ba9\u0bcd
p842
I438
sV\u0bb3\u0ba4\u0bc1
p843
I455
sV\u0bca\u0bb4\u0bbf
p844
I775
sV \u0bae\u0bc2
p845
I642
sV\u0bc6\u0baf\u0bb0
p846
I841
sV\u0bbf\u0ba4\u0bcd
p847
I308
sV\u0bc8\u0b9a\u0bcd
p848
I898
sV\u000a
I39
sV\u0bb1\u0bc1
p849
I92
sV\u0bb2\u0ba4\u0bcd
p850
I766
sV\u0b93
I988
sV\u0bcb 
p851
I864
sV\u0bb0\u0bc1\u0ba4
p852
I569
sV\u0bb0\u0bc1\u0ba8
p853
I267
sV\u0bb1\u0bc8
p854
I253
sV\u0bb0\u0bc1\u0baa
p855
I756
sV\u0bb1\u0bcd
p856
I68
sV \u0baa\u0ba3
p857
I853
sV\u0bb0\u0bc1\u0bae
p858
I327
sV\u0b95\u0bbe\u0b9f
p859
I752
sV\u0ba3
I51
sV\u0b95\u0bbe\u0ba3
p860
I823
sV\u0b85\u0bb0\u0b9a
p861
I887
sV\u0bb0\u0bc1\u0b95
p862
I285
sV \u0b87\u0bb5
p863
I673
sV\u0baf\u0bb5
p864
I878
sV\u0baf\u0bc8
p865
I437
sV\u0bbe\u0bb1\u0bcd
p866
I691
sV\u0b95\u0bbe\u0bb0
p867
I651
sV\u0bb3
I17
sV\u0b9a\u0bc6\u0baf
p868
I342
sV\u0bb0\u0bcd\u000a
p869
I151
sV\u0baa\u0bbf\u0b9f
p870
I744
sV\u0bcd\u0bb5\u0bbf
p871
I870
sV\u0b9f\u0b99\u0bcd
p872
I584
sV\u0bca\u0b9f
p873
I453
sV\u0bb7
I892
sV\u0bbf\u0baf\u0bb2
p874
I639
sV\u0bb5\u0bbf\u0baf
p875
I627
sV\u0bbf\u0baf\u0bbf
p876
I284
sV\u0bbf\u0baf\u0bbe
p877
I266
sV\u0ba4\u0bc8 
p878
I450
sV \u0b95\u0bc2
p879
I634
sV\u0bbf\u0baf\u0ba4
p880
I637
sV\u0ba3\u0bc8
p881
I667
sV\u0ba4\u0bc1 
p882
I78
sV\u0bbf\u0baf\u0bae
p883
I852
sV\u0bb3\u0bbe
p884
I380
sV\u0bc1  
p885
I847
sV\u0bb1\u0bb5
p886
I980
sV \u0ba4\u0ba9
p887
I552
sV\u0bb5\u0bbf\u0bb2
p888
I379
sV\u0bca\u0bb4
p889
I658
sV\u0bcd\u0ba4 
p890
I179
sV\u0baa\u0bc1\u0b95
p891
I548
sV\u0bca\u0bb0
p892
I532
sV\u0bb1\u0bbf
p893
I153
sV\u0bb1\u0bbe
p894
I361
sV\u0bb1\u0ba4
p895
I243
sV\u0bb1\u0ba9
p896
I466
sV\u0bc6\u0baf\u0bcd
p897
I414
sV\u0bb1\u0baa
p898
I905
sV\u0bca\u0ba3
p899
I410
sV\u0bb3\u0bb0
p900
I542
sV \u0ba4\u0bca
p901
I345
sV \u0ba4\u0bc7
p902
I665
sV\u0b9f\u0bcd\u0b9f
p903
I73
sV\u0bbe\u0ba3\u0bcd
p904
I978
sV \u0ba4\u0bc1
p905
I741
sV\u0bb3\u0bbf\u0ba9
p906
I488
sV\u0b87\u0bb5\u0bb0
p907
I473
sV\u0ba3\u0bbf
p908
I370
sV\u0bbe 
p909
I336
sV\u0ba4\u0baa\u0bcd
p910
I656
sV\u0bb3\u0bcd 
p911
I102
sV\u0b9f\u0bbf\u0b95
p912
I630
sV \u0ba8\u0bc0
p913
I784
sV\u0b9f\u0ba4\u0bcd
p914
I425
sV\u0ba8
I24
sV\u0bb3\u0ba9
p915
I632
sV\u0baa\u0bca\u0bb0
p916
I762
sV\u0baa\u0bcd
p917
I34
sV\u0baa\u0bc8
p918
I882
sV\u0bb3\u0bbf\u0baf
p919
I820
sV\u0baa\u0bca
p920
I398
sV\u0baa\u0bcb
p921
I226
sV\u0bb8
I300
sV\u0baa\u0bc6
p922
I168
sV\u0baa\u0bc7
p923
I518
sV\u0baa\u0bc1
p924
I147
sV\u0baa\u0bc2
p925
I904
sV\u0baa\u0bbe
p926
I152
sV\u0baa\u0bbf
p927
I125
sV\u0bc8
I19
sV\u0bca\u0bb3
p928
I862
sV\u0baa\u0bb0
p929
I409
sV\u0baa\u0bb1
p930
I902
sV\u0baa\u0bb2
p931
I420
sV\u0baa\u0baf
p932
I515
sV\u0bb2\u0ba4\u0bc1
p933
I981
sV\u0bb5\u0bc1 
p934
I588
sV\u0baa\u0ba4
p935
I237
sV\u0bc1\u0bb3\u0bcd
p936
I234
sV\u0baa\u0ba3
p937
I702
sV\u0baa\u0b9f
p938
I79
sVe
I614
sV \u0b92\u0bb0
p939
I324
sV\u0ba3\u0bcd
p940
I96
sV\u0ba4\u0bb2\u0bc8
p941
I840
sV\u0baa\u0b95
p942
I462
sV\u0bb0\u0bbf 
p943
I877
sV\u0b95\u0bb0\u0bc1
p944
I793
sV \u0ba4\u0bbf
p945
I368
sV \u0ba4\u0bbe
p946
I731
sV\u0bb0\u0bcd 
p947
I118
sV\u0bc1\u0baa\u0bcd
p948
I250
sV\u0bc6\u0ba9\u0bcd
p949
I706
sV \u0b92\u0ba9
p950
I982
sV\u0b9f\u0bb5
p951
I935
s.