(dp1
V\u0981
I98
sV\u09be\u09b9
p2
I234
sV\u09c7\u0995
p3
I579
sV\u09ae\u09be\u099c
p4
I601
sV\u09c7\u0993
p5
I142
sV\u09be\u09ac\u09c7
p6
I309
sV\u09c7\u0996
p7
I319
sV\u09c7\u099f
p8
I868
sV\u09be\u09b2
p9
I120
sV\u09b9\u09be
p10
I187
sV\u09a6\u09bf\u09a8
p11
I864
sV\u09be\u09b6
p12
I670
sV\u09be\u09b7
p13
I529
sV\u09be\u09a8
p14
I67
sV\u099c\u09c7
p15
I927
sV\u09f0\u09c0
p16
I174
sV\u09f0\u09c1
p17
I82
sV\u09be\u09ac
p18
I165
sV\u09f0\u09c7
p19
I85
sV\u09be\u09ae
p20
I151
sV\u09be\u09af
p21
I169
sV \u0997\u09be
p22
I750
sV\u09f0\u09cb
p23
I488
sV\u099c\u09cd
p24
I423
sV\u09be\u09a4
p25
I114
sV\u09be\u09a6
p26
I334
sV\u09f0\u09cd
p27
I59
sV\u09a1
I130
sV 
I0
sV\u09f0\u09f0
p28
I273
sV\u09be\u099b
p29
I559
sV\u09be\u099c
p30
I221
sV\u09c7\u09b2
p31
I323
sV\u099c\u09f0
p32
I653
sV\u09be\u099f
p33
I401
sV\u0997\u09c0\u09a4
p34
I898
sV\u09f0\u09be\u0995
p35
I946
sV\u09be\u0995
p36
I160
sV\u09be\u0996
p37
I901
sV\u09be\u0997
p38
I339
sV\u09f0\u09cd\u09a4
p39
I652
sV\u09f0\u09cd\u09a5
p40
I672
sV\u09b2
I9
sV\u09ae\u09be\u09a8
p41
I255
sV\u09f0\u09cd\u09ac
p42
I615
sV\u09be\u0981
p43
I749
sV\u09f0\u09cd\u09ae
p44
I511
sV\u09f0\u09cd\u09af
p45
I673
sV\u09a8\u09bf\u099c
p46
I977
sV\u09be\u0987
p47
I128
sV\u09c1
I16
sV  
p48
I178
sV\u09f0\u09f0 
p49
I286
sV\u09f0 \u0997
p50
I896
sV\u09c1\u0996
p51
I925
sV\u09f0 \u0995
p52
I235
sV\u09f0\u0995
p53
I302
sV\u09be\u09f0
p54
I27
sV\u09be\u09f1
p55
I508
sV\u0995\u09cb\u09a8
p56
I886
sV\u09f0\u09c7\u0964
p57
I252
sV\u09f0 \u099c
p58
I718
sV\u09a6\u09cd\u09af
p59
I536
sV \u0989\u09aa
p60
I577
sV\u09f0 \u0986
p61
I362
sV\u09f0 \u0985
p62
I392
sV\u099c\u09a8 
p63
I638
sV\u0995 \u0986
p64
I831
sV\u09a6\u09cd\u09a7
p65
I504
sV\u09bf\u09ae
p66
I479
sV\u09f0 \u098f
p67
I506
sV\u09ac\u09be\u09f0
p68
I589
sV\u09c0\u0995
p69
I684
sV\u09c7\u0987
p70
I247
sV\u09cd\u09ae\u09be
p71
I818
sV\u09a8\u09bf\u09f0
p72
I538
sV\u09c7\u09f0
p73
I377
sV\u099c\u09be
p74
I266
sV\u099c\u09bf
p75
I456
sV\u09f0 \u09b9
p76
I780
sV\u09f0 \u09b8
p77
I177
sV\u09f0\u09be
p78
I43
sV\u09f0\u09bf
p79
I49
sV\u09ae\u09be\u09f0
p80
I920
sV\u09f1
I47
sV\u09f0\u09a3
p81
I267
sV\u0995 \u09ac
p82
I586
sV\u09f0\u09c0 
p83
I447
sV\u0995 \u09aa
p84
I680
sV\u09f0 \u09a6
p85
I376
sV\u09f0\u09a4
p86
I140
sV\u09f0\u09a5
p87
I778
sV\u09f0 \u09aa
p88
I113
sV\u0993\u0981
p89
I154
sV\u09f0 \u09a8
p90
I481
sV\u09f0\u09ae
p91
I395
sV\u09f0 \u09ae
p92
I277
sV\u099c\u09a8
p93
I197
sV\u09f0 \u09ac
p94
I152
sV\u099c\u09c0
p95
I591
sV\u09af\u09cb\u0997
p96
I633
sV\u0986
I35
sV\u09a7\u09bf
p97
I468
sV\u09a7\u09be
p98
I316
sV\u09c1\u0995\u09cd
p99
I756
sV\u0995\u09f0
p100
I45
sV\u09cd\u09ac\u09f0
p101
I738
sV\u0995\u09c3\u09a4
p102
I922
sV\u09be\u09a8 
p103
I201
sV\u0996
I65
sV\u09a6\u09cd\u09ac
p104
I846
sV\u09b9\u09b2
p105
I931
sV\u0986\u09a6\u09bf
p106
I967
sV\u09b6\u09cd\u09ac
p107
I531
sV\u09be\u09a3
p108
I490
sV\u09a6
I21
sV\u0995\u09cd
p109
I93
sV\u09a8\u09cd\u09af
p110
I608
sV\u09b2 
p111
I105
sV\u0995\u09c8
p112
I499
sV\u0995\u09cb
p113
I328
sV\u09b6
I46
sV\u0995\u09c7
p114
I176
sV\u09be\u09a7
p115
I459
sV\u0995\u09c1
p116
I587
sV\u0995\u09c0
p117
I617
sV\u0995\u09c3
p118
I628
sV\u09c7\u09b7
p119
I418
sV\u0995\u09bf
p120
I242
sV\u0995\u09be
p121
I76
sV\u09bf\u09a4\u09be
p122
I937
sV\u09c7\u09b6
p123
I434
sV\u09be\u099a
p124
I753
sV\u0995\u09b2
p125
I222
sV\u0987\u09af
p126
I428
sV\u09b8\u09ae\u09c2
p127
I700
sV\u09cd\u099e\u09be
p128
I987
sV\u09a6\u09be\u09a8
p129
I989
sV\u09cd\u09ac\u09be
p130
I403
sV\u09ac\u09cb\u09f0
p131
I788
sV\u0995\u09f0\u09be
p132
I194
sV\u09a8\u09cd\u09a7
p133
I726
sV\u0986\u09f0\u09c1
p134
I103
sV\u09be\u09ad 
p135
I759
sV\u099e\u09be
p136
I939
sV\u09a4\u09c7\u0993
p137
I156
sV\u09bf\u09a4 
p138
I193
sV\u09f0\u09be 
p139
I119
sV\u000a\u09a4\u09c7
p140
I467
sV\u09c1\u09f1\u09be
p141
I668
sV\u09c2\u09f0\u09cd
p142
I805
sV\u09bc\u09be\u09f0
p143
I363
sV\u09bf\u09b6\u09cd
p144
I661
sV\u09c7\u0964
p145
I111
sV\u09c3\u09b7\u09cd
p146
I952
sV\u0987 
p147
I79
sV\u09a4\u09c7\u0996
p148
I879
sV\u09a7\u09cd
p149
I736
sV\u09c7\u09f1
p150
I723
sV  \u099a
p151
I558
sV\u09b2\u0995
p152
I614
sV\u09b2\u0997
p153
I375
sV\u09bf\u09a4\u09cd
p154
I427
sV\u09be\u09b8
p155
I276
sV\u09bf\u09a8
p156
I131
sV \u09f0\u09be
p157
I348
sV\u09a3\u09cd\u09a1
p158
I580
sV\u09bf\u09a7
p159
I971
sV\u099f\u09cd\u09f0
p160
I914
sV\u099c\u09cd\u099e
p161
I850
sV\u09a7 
p162
I683
sV \u09a5\u0995
p163
I929
sV\u09c7\u0964\u000a
p164
I112
sV \u0985\u09f0
p165
I976
sV\u09af\u0995
p166
I792
sV\u09f0\u09c2\u09aa
p167
I921
sV\u09a6\u09cd\u09f0
p168
I698
sV\u09ab
I220
sV\u09b2\u09bf
p169
I153
sV\u09b2\u09a4
p170
I482
sV\u09c0\u09af\u09bc
p171
I161
sV\u09c7\u09a4
p172
I297
sV\u09a8\u09a4 
p173
I249
sV\u099f\u09cd
p174
I627
sV\u09f0\u09be\u09f0
p175
I706
sV\u09b2\u09af
p176
I604
sV\u09b2\u09a8
p177
I650
sV\u09bc\u09be 
p178
I248
sV \u0985\u09ad
p179
I774
sV\u09f0\u09cd\u09a3
p180
I798
sV \u0985\u09a8
p181
I307
sV\u09be\u09a8\u09f0
p182
I883
sV\u09bf\u09af\u09bc
p183
I138
sV\u09cb
I28
sV \u0985\u09a7
p184
I731
sV\u09be \u09af
p185
I742
sV\u0982\u09b6
p186
I891
sV\u09a5\u0995
p187
I708
sV\u09b2\u09c7
p188
I181
sV\u09b2\u09c0
p189
I489
sV\u09f0\u09be\u099c
p190
I518
sV\u09c7\u09ae
p191
I838
sV\u09b2\u09cd
p192
I413
sV\u09b2\u09c8
p193
I183
sV\u0995 
p194
I56
sV\u09b2\u09cb
p195
I250
sV\u09b2\u09f0
p196
I371
sV\u09ac\u09b2\u09c8
p197
I448
sV\u09be \u09aa
p198
I330
sV\u09c1 \u09b8
p199
I844
sV\u09a8\u09cd\u09ae
p200
I913
sV\u09b9\u09af\u09bc
p201
I196
sV\u09a8\u09cd\u09a8
p202
I554
sV\u09be\u09a8\u09c0
p203
I897
sV\u09a0\u09bf
p204
I862
sV\u09a4\u09f0 
p205
I435
sV\u09a8\u09cd\u09a4
p206
I231
sV\u09a8\u09cd\u09a6
p207
I355
sV\u09c7\u09a8
p208
I381
sV\u09a6\u09c7\u09b6
p209
I779
sV\u0987\u09a8
p210
I919
sV \u09b8\u09c7
p211
I696
sV\u09b8\u09c1
p212
I766
sV\u09a6\u09bf 
p213
I734
sV\u09c1 \u09ac
p214
I858
sV\u09bf\u0993
p215
I881
sV\u09ac\u09be 
p216
I417
sV\u09b2\u09f0 
p217
I407
sV \u09f0
p218
I137
sV \u09ac\u09f0
p219
I610
sV\u09be 
p220
I18
sV \u099a\u09f0
p221
I951
sV\u099f\u09bf 
p222
I634
sV \u09ac\u09c7
p223
I735
sV\u09a0
I185
sV \u09ac\u09c1
p224
I449
sV\u09f0\u09c0\u09af
p225
I932
sV \u09ac\u09cd
p226
I360
sV\u0997\u09cd\u09f0
p227
I370
sV\u099b\u09bf
p228
I104
sV\u099b\u09be
p229
I888
sV\u09ac\u09bf\u09a6
p230
I677
sV\u09f0\u099a
p231
I985
sV\u09a8\u09bf 
p232
I777
sV\u09c7 
p233
I24
sV\u09cd\u09a4\u09be
p234
I890
sV\u09a4\u09bf\u09f0
p235
I685
sV\u09be \u09b8
p236
I397
sV\u09c0
I29
sV \u09a1
p237
I512
sV \u09a6
p238
I78
sV \u099a\u09a8
p239
I265
sV \u09a4
p240
I87
sV \u09a5
p241
I361
sV \u09aa
p242
I25
sV \u09ab
p243
I396
sV \u09a8
p244
I77
sV \u09ae
p245
I61
sV \u09af
p246
I139
sV \u09ac
p247
I26
sV \u09ad
p248
I146
sV \u09b2
p249
I107
sV \u099a\u09bf
p250
I646
sV \u099a\u09be
p251
I711
sV\u099b\u09c7
p252
I210
sV \u0997\u09cd
p253
I859
sV \u09ac\u09bf
p254
I108
sV \u09ac\u09be
p255
I127
sV \u09b8
p256
I37
sV \u09b9
p257
I50
sV \u09ac\u09b9
p258
I904
sVl
I979
sVa
I483
sV\u099b\u09f0
p259
I629
sV\u09ac\u09be\u09ac
p260
I340
sV \u0987
p261
I282
sV \u0985
p262
I66
sV\u09cd\u09a0\u09be
p263
I975
sV \u0989
p264
I157
sV \u098f
p265
I81
sV\u09b2\u0964
p266
I171
sV\u09f0
I1
sV\u09f0 
p267
I12
sV\u0989\u09aa
p268
I542
sV \u0996
p269
I337
sV \u0997
p270
I109
sV\u099c 
p271
I875
sV \u0995
p272
I23
sV \u099a
p273
I89
sV \u099b
p274
I425
sV \u0998
p275
I557
sV\u09f1 
p276
I754
sV \u099f
p277
I595
sV \u099c
p278
I135
sV\u0989\u09a6
p279
I969
sV\u099b 
p280
I813
sV \u09b8\u0982
p281
I366
sV\u09bf\u09b2 
p282
I295
sV \u09aa\u09cd
p283
I95
sV\u000a\u098f
p284
I338
sV\u09be\u09a4\u09cd
p285
I906
sV\u09bc 
p286
I126
sV\u000a\u0985
p287
I934
sV\u000a\u0986
p288
I842
sV\u000a\u0987
p289
I667
sV \u09aa\u09c1
p290
I676
sV\u09f0 \u0989
p291
I761
sV\u09b6\u09be
p292
I593
sV\u09b6\u09bf
p293
I327
sV\u099f\u09cb 
p294
I613
sV\u099a\u09be\u09f0
p295
I783
sV\u000a\u09b8
p296
I556
sV \u09b8\u09ae
p297
I209
sV\u09f0\u09c2
p298
I873
sV\u09f1\u09b8
p299
I785
sV\u09ad
I51
sV \u09aa\u09f0
p300
I141
sV\u000a\u09ac
p301
I574
sV\u000a\u09ae
p302
I905
sV\u09c0\u09f0 
p303
I372
sV \u09b8\u09be
p304
I351
sV\u000a\u09aa
p305
I509
sV\u09ac\u09cd\u09af
p306
I386
sV\u000a\u09a4
p307
I332
sV\u09be\u09b2 
p308
I948
sV\u09af\u09c7 
p309
I855
sV\u09cd\u099f 
p310
I817
sV\u09ac\u09bf\u09b6
p311
I455
sV\u09ac\u09bf\u09b7
p312
I974
sV \u09b8\u09cd
p313
I296
sV\u09f0 \u09b2
p314
I478
sV \u09b8\u09c1
p315
I992
sV\u099b\u09a4
p316
I582
sV\u09cd
I4
sV\u09cb\u09f1\u09be
p317
I214
sV\u09cd\u09a8 
p318
I660
sV\u09c7\u0996\u09c7
p319
I852
sV\u09a5\u09be 
p320
I823
sV\u09b2\u09af\u09bc
p321
I611
sV\u09cd\u099c
p322
I853
sV\u09aa 
p323
I787
sV\u09ac\u09bf\u09ad
p324
I657
sV\u0981 
p325
I284
sV \u09aa\u09bf
p326
I527
sV \u09aa\u09be
p327
I204
sV\u0995 \u09b8
p328
I603
sV\u09b6\u09c7
p329
I681
sV\u09ac\u09cd\u09f0
p330
I991
sV \u0997\u09c1
p331
I924
sV\u09b6\u09cd
p332
I240
sV\u09be\u0995 
p333
I654
sV\u09af\u09bc\u0964
p334
I168
sV\u09ad \u0995
p335
I605
sV\u099a\u09be\u09aa
p336
I588
sV\u09ad\u09bf
p337
I253
sV\u09ad\u09be
p338
I148
sV\u09f0\u09b8
p339
I782
sV\u0982
I117
sV \u09a6\u09c7
p340
I394
sV\u0996\u09c7
p341
I445
sV \u0986\u09b9
p342
I764
sV\u0996\u09cd
p343
I690
sV\u09bf\u09f0
p344
I155
sV\u0995\u09c7 
p345
I426
sV\u09cb\u09a8\u09cb
p346
I935
sV\u09c1\u0995
p347
I374
sV\u09f0\u09bf\u099b
p348
I313
sV \u0986\u09a6
p349
I866
sV \u0986\u09a8
p350
I655
sV\u0985\u09ad\u09bf
p351
I841
sV\u09bf\u0995 
p352
I212
sV\u09c1\u099f
p353
I953
sV \u09a7
p354
I399
sV\u099f\u09bf
p355
I257
sV\u099f\u09be
p356
I163
sV\u09f0\u09bf\u09ac
p357
I450
sV\u09a2
I675
sV\u09c1\u09a4
p358
I573
sV \u0986\u0997
p359
I880
sV\u09c1\u09a6
p360
I834
sV\u0995\u09f0\u09c7
p361
I244
sV \u0986\u099b
p362
I308
sV\u099c\u09a4
p363
I983
sV\u09af\u09bc\u09be
p364
I100
sV\u09c1\u09ae
p365
I702
sV\u09bf\u099a\u09be
p366
I400
sV\u09c1\u09b2
p367
I275
sV\u09af\u09bc\u09a4
p368
I526
sV\u09a8 \u0995
p369
I258
sV\u09c1\u09b7
p370
I847
sV\u09c7 \u0995
p371
I465
sV\u09f0\u09a6
p372
I757
sV\u09cd\u09af 
p373
I260
sV\u09c8\u099b
p374
I239
sV\u09c2
I133
sV\u09ac \u09aa
p375
I814
sV\u09bf\u09b9
p376
I727
sV\u09a8 \u09aa
p377
I717
sV\u09bf\u09b7
p378
I344
sV\u09bf\u09b6
p379
I299
sV\u09a6\u09c7\u0996
p380
I968
sV\u09bf\u09b2
p381
I74
sV\u09bf\u09af
p382
I125
sV\u0995\u09f0\u09bf
p383
I145
sV\u09bf\u09ad
p384
I474
sV\u09bf\u09ac
p385
I192
sV\u099f\u09cb
p386
I320
sV\u09bf\u09aa
p387
I751
sV\u09af\u09bc\u09c7
p388
I262
sV\u099f\u09c7
p389
I857
sV\u09bf\u09a6
p390
I410
sV\u09a8 
p391
I48
sV\u09bf\u09a4
p392
I90
sV\u09af\u09bc\u09f0
p393
I807
sV\u09bf\u099f
p394
I640
sV\u09bf \u09aa
p395
I621
sV\u09bf\u099c
p396
I382
sV\u09bf\u099b
p397
I136
sV\u09bf\u099a
p398
I287
sV\u0996\u09a8
p399
I269
sV\u09bf\u0996
p400
I669
sV\u09bf\u0995
p401
I88
sV\u000a\u0987\u09af
p402
I957
sV\u09bf \u09b8
p403
I870
sV\u099b\u09c1
p404
I994
sV\u09c1\u09f1
p405
I497
sV\u09c1\u09f0
p406
I223
sV\u09f0 \u09ad
p407
I771
sV\u09bf \u09ac
p408
I616
sV\u09be\u0987 
p409
I264
sV\u0996\u09be
p410
I420
sV\u0996\u09bf
p411
I825
sV\u09bf\u0995\u09be
p412
I460
sV\u0987
I39
sV\u0985\u09b8\u09ae
p413
I659
sV\u09c3\u09a4\u09cd
p414
I966
sV\u09a8\u09f0
p415
I179
sV\u09cd\u09af\u0995
p416
I808
sV \u09a6\u09c1
p417
I619
sV\u0997
I34
sV\u09be\u09f0\u09be
p418
I822
sV \u09ad\u09be
p419
I271
sV \u09ad\u09bf
p420
I938
sV \u09a6\u09cd
p421
I944
sV\u09a1\u09bc
p422
I889
sV\u09a1\u09bf
p423
I596
sV\u09a1\u09be
p424
I902
sV\u09c1 
p425
I72
sV\u0995\u09cd\u09b7
p426
I213
sV\u0993 
p427
I359
sV\u09cd\u09af\u09be
p428
I230
sV\u09a7
I71
sV\u09a8\u09cb
p429
I469
sV\u09f0\u09bf 
p430
I237
sV\u09af\u09bc 
p431
I132
sV\u0995\u09cd\u09a4
p432
I341
sV\u09b7
I52
sV\u09a8\u09cd
p433
I68
sV\u09a8\u09c0
p434
I280
sV\u09a8\u09c1
p435
I329
sV\u09a8\u09c7
p436
I263
sV\u09ac\u09c1\u09b2
p437
I606
sV\u099f 
p438
I411
sV\u09a8\u09be
p439
I97
sV\u09a8\u09bf
p440
I115
sV\u09c7
I7
sV\u09aa\u09c7 
p441
I514
sV\u0964\u000a\u09b8
p442
I570
sV\u09bf\u09b2\u0964
p443
I188
sV\u0995\u09f0 
p444
I544
sV\u09bc\u0964
p445
I166
sV\u0964\u000a\u09a4
p446
I346
sV\u09a4\u09c1 
p447
I996
sV \u0986
p448
I38
sV\u0964\u000a\u09aa
p449
I522
sV\u0964\u000a\u09ac
p450
I598
sV\u09a8\u09a4
p451
I211
sV\u09bf 
p452
I44
sV\u09a4\u09c7 
p453
I184
sV\u09a8\u09f0 
p454
I199
sV\u0964\u000a\u0995
p455
I594
sV\u0995\u09cd\u09f0
p456
I585
sV\u0996\u09c7\u09a4
p457
I758
sV\u09cd\u09af\u09f1
p458
I765
sV \u09a6\u09bf
p459
I278
sV\u09a8\u0995
p460
I801
sVr
I710
sV\u0964\u000a\u0985
p461
I943
sV\u09bf\u0995\u09cd
p462
I641
sV\u0964\u000a\u0986
p463
I872
sV\u09c8 
p464
I116
sV\u09be\u09ad
p465
I565
sV\u0964\u000a\u098f
p466
I350
sV\u09c7\u0987 
p467
I387
sV\u09b6 
p468
I466
sV\u09c8\u099b\u09c7
p469
I505
sV\u09be \u09a8
p470
I609
sV\u09bc\u09be
p471
I94
sV\u09bc\u09bf
p472
I837
sV\u099a\u09a8\u09f0
p473
I851
sV\u09aa\u09f0
p474
I99
sV\u09bf\u09b2\u09be
p475
I745
sV\u09bc\u09a4
p476
I516
sV\u09aa\u09f0\u09bf
p477
I303
sV\u09aa\u09f0\u09be
p478
I270
sV\u099c
I41
sV\u0987 \u09b8
p479
I845
sV\u09c8\u09a4
p480
I795
sV \u0993
p481
I781
sV\u09ac
I10
sV\u0987 \u09ac
p482
I915
sV\u09aa\u09cd
p483
I70
sV\u09be\u09b2\u09af
p484
I815
sV\u0987 \u09aa
p485
I903
sV\u09aa\u09cb
p486
I739
sV\u09c7 \u09a8
p487
I810
sV\u09bf \u0995
p488
I476
sV\u09aa\u09c7
p489
I331
sV\u000a 
p490
I419
sV\u09bc
I19
sV\u09aa\u09c2
p491
I623
sV\u09aa\u09be
p492
I122
sV\u09aa\u09bf
p493
I294
sV\u09bc\u09f0
p494
I776
sV\u09aa\u09c2\u09f0
p495
I940
sV\u09a4 \u09ae
p496
I746
sV\u09a7\u09be\u09a8
p497
I918
sV\u09a4 \u09ac
p498
I358
sV\u09a4 \u09aa
p499
I368
sV\u09a4 \u09a8
p500
I923
sV\u099c\u09f0 
p501
I988
sV \u0995\u09bf
p502
I563
sV\u09aa\u09a8
p503
I728
sV\u09f0 \u099a
p504
I912
sV\u09aa\u09a4
p505
I701
sV\u09aa\u09a6
p506
I811
sV\u09b6\u09c7\u09b7
p507
I843
sV\u09a4 \u09b9
p508
I357
sV\u09a4 \u09b8
p509
I452
sV\u09a4 \u0986
p510
I513
sV\u09a4 \u0985
p511
I545
sV\u09aa\u09f0\u09cd
p512
I955
sV\u09ad 
p513
I480
sV\u09a4 \u098f
p514
I551
sV\u09bf\u09b2\u09c7
p515
I998
sV\u09cc
I662
sV\u09bc\u09c7
p516
I256
sV\u09a4 \u0995
p517
I342
sV\u09be\u09a4 
p518
I272
sV\u09bc\u09cb
p519
I863
sV\u09a4\u09be 
p520
I458
sV \u09b9\u09c8
p521
I208
sV \u09b9\u09cb
p522
I686
sV\u0997\u09a4 
p523
I562
sV\u0989
I118
sV\u09ae\u09f0 
p524
I549
sV\u09c7\u0993\u0981
p525
I158
sV\u09a5\u09bf
p526
I737
sV\u09a5\u09be
p527
I202
sV\u09bf\u09ac 
p528
I796
sV\u0999
I454
sV\u09aa\u09bf\u099b
p529
I725
sV\u099e\u09cd\u099a
p530
I747
sV\u09ac\u09be\u09b9
p531
I840
sV\u09ae\u09a8
p532
I607
sV\u09be\u09a8\u09cd
p533
I503
sV\u09f0\u09c7 
p534
I217
sV\u09ae\u09af
p535
I631
sV\u09a4\u09c0\u09af
p536
I687
sV\u09aa\u09cd\u09f0
p537
I80
sV\u09ae\u09a4
p538
I528
sV\u09a4\u09bf\u0995
p539
I663
sV\u09ae\u09b9
p540
I622
sV\u09b9\u09f0 
p541
I760
sV\u09b2\u09a4 
p542
I671
sV\u09ae\u09be
p543
I83
sV\u09ae\u09bf
p544
I289
sV\u09b9
I17
sV \u0986\u09f0
p545
I96
sV\u0964\u000a\u09ae
p546
I928
sV\u09ac\u09be\u09b8
p547
I982
sV \u09b2\u09cb
p548
I836
sV\u09af\u09f1
p549
I763
sV\u099e\u09cd
p550
I519
sV\u09ae\u09cd
p551
I224
sV\u09ae\u09c0
p552
I626
sV\u09ae\u09c1
p553
I383
sV\u09ae\u09c2
p554
I378
sV \u09b2\u09be
p555
I446
sV\u09ae\u09c7
p556
I373
sV\u09b2\u09c7 
p557
I440
sV \u09b2\u0997
p558
I471
sV \u09b9\u09af
p559
I215
sV\u09be\u09ae\u09f0
p560
I832
sV\u09bc\u09f0 
p561
I878
sV\u09b8\u09ae\u09af
p562
I741
sV \u09b9\u09be
p563
I793
sV \u09b9\u09bf
p564
I432
sV\u09ae\u09f0
p565
I349
sV\u09b8\u09c8
p566
I962
sV\u09a8\u09cb 
p567
I829
sV\u099b\u09a4 
p568
I691
sV\u09cd\u09f0\u09c7
p569
I713
sV\u09cb 
p570
I203
sV \u09aa\u09cb
p571
I997
sV\u09cd\u09f0\u09c0
p572
I451
sV\u0996\u09cd\u09af
p573
I812
sV\u099a\u09a8\u09a4
p574
I405
sV\u09b7\u09a3
p575
I819
sV\u098f\u0987 
p576
I225
sV\u099e
I310
sV\u0995\u09be 
p577
I501
sV \u0995\u09be
p578
I243
sV\u0997\u09a4
p579
I304
sV\u0997\u09c1
p580
I635
sV\u09b8\u09a8\u09cd
p581
I826
sV\u09b7\u09cd
p582
I144
sV\u09a7\u09f0
p583
I495
sV\u099b\u09ac
p584
I930
sV \u0995\u09b2
p585
I963
sV\u09ae
I14
sV \u09b8\u09a8
p586
I970
sV\u09c0\u09f0
p587
I268
sV \u09b8\u0995
p588
I722
sV\u0997\u09be
p589
I345
sV\u09cd\u09a5\u09be
p590
I406
sV\u0985\u09f1
p591
I821
sV\u0985\u09f0
p592
I887
sV\u09be
I2
sV\u0997\u09c7
p593
I786
sV\u09b2\u09cb\u0995
p594
I484
sV\u09ad\u09bf\u09a8
p595
I533
sV\u09bf\u09f0 
p596
I326
sV\u0964\u000a\u0987
p597
I692
sV\u09b8\u0995\u09b2
p598
I353
sV\u0997\u09c0
p599
I539
sV\u09b9 
p600
I492
sV\u0997\u09cd
p601
I298
sV\u0997\u09cb
p602
I716
sV\u09ce
I534
sV\u099a\u09cd\u099a
p603
I964
sV \u0995\u09cd
p604
I688
sV\u09cd\u09f0\u0995
p605
I695
sV\u09aa\u09be\u09f0
p606
I553
sV\u09b2\u09be\u09ad
p607
I715
sV \u0995\u09cb
p608
I515
sV\u09b7\u09bf
p609
I999
sV\u09b7\u09be
p610
I414
sV \u0995\u09c7
p611
I576
sV\u0985\u09ad
p612
I733
sV \u09a7\u09f0
p613
I743
sV\u09cd\u09f0\u09a4
p614
I335
sV\u09cd\u09f0\u09a5
p615
I806
sV\u09b2\u0997\u09a4
p616
I674
sV\u0985\u09a8
p617
I290
sV\u09c0\u09a4
p618
I364
sV\u09cd\u09f0\u09ae
p619
I909
sV\u0985\u09a7
p620
I694
sV\u09b2 \u0986
p621
I790
sV \u0995\u09f0
p622
I54
sV\u09c0\u09af
p623
I159
sVs
I867
sV\u0985\u09b8
p624
I494
sV\u0997\u09f0
p625
I415
sV\u09cd\u09f0\u09be
p626
I288
sV\u09cd\u09f0\u09bf
p627
I498
sV\u09ac\u09f0 
p628
I893
sV\u09a4\u09cd\u09a4
p629
I535
sV\u09cb\u09a8
p630
I584
sV\u09a4\u09cd\u09ac
p631
I772
sV\u09cd\u09b7\u09be
p632
I732
sV\u09a4\u09cd\u09af
p633
I436
sV\u09be \u0997
p634
I865
sV\u09cb\u09b2
p635
I789
sV\u0993
I86
sV \u0987\u09af
p636
I882
sV\u09b9\u09f0
p637
I462
sV\u0964\u000a 
p638
I433
sV\u09a4\u09c1
p639
I389
sV\u09be\u09ae 
p640
I524
sV\u09b9\u09c8
p641
I205
sV\u09a3
I60
sV\u0997 
p642
I463
sV \u09ae\u09c1
p643
I597
sV\u09b8\u09ae\u09cd
p644
I572
sV\u09b9\u09c7
p645
I507
sV\u0995\u09be\u09b2
p646
I950
sV\u09cb\u0997
p647
I391
sV\u09cb\u0995
p648
I380
sV\u099b\u09bf\u09b2
p649
I121
sV\u09ae\u09cd\u09aa
p650
I486
sV\u09cd\u09f0\u09a6
p651
I995
sV\u09c3
I162
sV\u099a\u09c7
p652
I894
sV\u09b9\u09af
p653
I189
sV\u09b7 
p654
I848
sV \u099c\u09be
p655
I959
sV\u09b9\u09a4
p656
I980
sV\u09a4\u09cd\u09f0
p657
I216
sV\u09cb\u09f1
p658
I195
sV\u09cb\u09f0
p659
I343
sV\u09b9\u09bf
p660
I186
sV \u09ae\u09be
p661
I207
sV\u09b2\u09be 
p662
I643
sV\u09a0\u09be
p663
I491
sV\u09a6\u09bf\u09af
p664
I709
sV \u099c\u09a8
p665
I441
sV\u09c0 
p666
I102
sV\u09b9\u09bf\u099a
p667
I583
sV\u09cd\u09f0 
p668
I470
sV \u09b6
p669
I150
sV\u09a7\u09be\u09f0
p670
I712
sV\u09c2\u09aa
p671
I856
sVn
I664
sV\u0995\u09be\u09f0
p672
I236
sV\u09c0\u09a8
p673
I861
sV\u09be\u09aa
p674
I226
sV\u09c2\u09b9
p675
I693
sV\u09bf\u099b\u09a4
p676
I972
sV\u09cd\u09a5
p677
I206
sV\u09cd\u09a4
p678
I73
sV\u09cd\u09a7
p679
I274
sV\u09cd\u09a6
p680
I245
sV\u09cd\u09a1
p681
I443
sV\u09cd\u09a0
p682
I442
sV\u09cd\u09a3
p683
I575
sV\u09cd\u09ad
p684
I571
sV\u09cd\u09ac
p685
I110
sV\u09cd\u09af
p686
I53
sV\u09cd\u09ae
p687
I227
sV\u09cd\u09a8
p688
I333
sV\u09cd\u09aa
p689
I293
sV\u09cd\u09b7
p690
I182
sV\u0982\u0997
p691
I566
sV\u09cd\u09b2
p692
I520
sV\u2019
I548
sV\u0998
I314
sV\u09a4\u09bf 
p693
I261
sV\u09a4\u09bf\u09af
p694
I885
sV\u09ae 
p695
I170
sV\u09a8
I8
sV\u09c7\u09f0\u09c7
p696
I986
sV\u09cd\u0995
p697
I388
sV\u09f0\u0995\u09be
p698
I630
sV\u09f0\u09a3 
p699
I697
sV\u09bf \u0986
p700
I560
sV\u09b8
I15
sV\u09cd\u099f
p701
I180
sV\u09cd\u099e
p702
I849
sV\u0982\u09b8
p703
I907
sV\u09cd\u099a
p704
I318
sV\u0995\u09c8 
p705
I618
sV\u09c8
I55
sV\u09bf\u09ad\u09bf
p706
I911
sV\u09c7 \u098f
p707
I457
sV\u09cd\u09f0
p708
I31
sV\u09a2\u09bc
p709
I833
sV\u09c7 \u0985
p710
I762
sV\u09c7 \u0986
p711
I422
sV\u09a4\u09be
p712
I123
sV\u09c7 \u09b8
p713
I412
sVi
I564
sV\u09a5\u09ae
p714
I769
sV\u09c7 \u09ac
p715
I354
sV\u09c7 \u09ae
p716
I679
sV\u09c7 \u09af
p717
I803
sV\u09be\u09aa\u09c7
p718
I612
sV\u09b6\u09cd\u09f0
p719
I956
sV\u09c7 \u09aa
p720
I379
sV\u000a\u098f\u0987
p721
I487
sV\u09c7 \u09a4
p722
I431
sV\u09bc\u0964\u000a
p723
I167
sV\u0981\u09f0 
p724
I636
sV\u09cd\u09f0\u09b9
p725
I917
sV\u09b6\u09bf\u0995
p726
I809
sV\u09bf\u09a8\u09bf
p727
I958
sV\u0985
I57
sV \u09a5\u09be
p728
I874
sV \u098f\u0987
p729
I312
sV\u09b9\u09c8 
p730
I624
sV\u09a3 
p731
I219
sV\u09ae\u09af\u09bc
p732
I637
sV \u098f\u099f
p733
I550
sV\u0995
I6
sV \u098f\u0995
p734
I369
sV\u09a4\u09f0
p735
I233
sV\u0986\u099b\u09c7
p736
I899
sV\u09a4\u09cd
p737
I91
sV\u09a5
I75
sV\u09a4\u09cb
p738
I895
sV\u09ac 
p739
I291
sV\u0981\u09f0
p740
I581
sV\u09a4\u09c7
p741
I62
sV\u09ac\u09c7 
p742
I322
sV\u09a4\u09c3
p743
I941
sV\u09a4\u09c0
p744
I385
sV\u09f1\u09be
p745
I129
sV\u09f1\u09be\u09f0
p746
I600
sV\u09af\u09be\u09af
p747
I530
sV\u099a\u09bf\u09a4
p748
I689
sV\u09b8\u09cd\u09ac
p749
I705
sV\u09cd\u09a4\u09f0
p750
I632
sV\u09b8\u09cd\u09a4
p751
I540
sV\u09b8\u09cd\u09a5
p752
I321
sV\u09a4\u09a4
p753
I947
sV\u09f0\u09c1 
p754
I101
sV\u09a4\u09bf
p755
I84
sV\u09aa\u09c1\u09f0
p756
I954
sV\u09f1\u09c7
p757
I416
sV\u09b2\u09c8 
p758
I218
sV\u09ad\u09be\u09f0
p759
I543
sV\u09ad\u09be\u09f1
p760
I767
sV\u09b7\u09cd\u09a0
p761
I475
sV\u09c1\u09f0 
p762
I892
sV\u09b2\u0964\u000a
p763
I172
sV\u09f1\u09f0
p764
I768
sV\u0995\u09b2\u09c7
p765
I910
sV\u09b7\u09cd\u099f
p766
I254
sV\u099b\u09c7\u0964
p767
I384
sV\u0986\u099b\u09bf
p768
I477
sV\u099a 
p769
I973
sV\u09ac\u09f0\u09cd
p770
I730
sV\u09aa\u09c1
p771
I404
sV\u09bf\u09a8\u09cd
p772
I352
sV\u09a5\u0995\u09be
p773
I869
sVt
I729
sV\u09b8\u09cd\u0995
p774
I775
sV\u09a4\u0995
p775
I773
sVe
I464
sV\u09f0\u09a4 
p776
I325
sV\u09a6\u09f0
p777
I421
sV\u09b8\u09a8
p778
I569
sV\u09b8\u09ae
p779
I124
sV\u09cd\u09a4\u09cd
p780
I665
sV\u09af\u09c7
p781
I541
sV\u09bc \u0986
p782
I965
sV\u099f\u09be 
p783
I285
sV\u0986\u099b
p784
I306
sV\u09af\u09c1
p785
I485
sV\u09cd\u0997
p786
I949
sV\u09be\u09f0\u09cd
p787
I315
sV\u09b9\u09cb\u09f1
p788
I678
sV\u09a4 \u09a4
p789
I437
sV\u09b8\u09be
p790
I228
sV\u09b8\u09bf
p791
I719
sV\u09be\u09f0\u09c7
p792
I547
sV\u099a
I36
sV\u099b
I40
sV\u09a8\u09be\u09f0
p793
I984
sV\u09b8\u0982
p794
I301
sV\u0986\u09b9
p795
I721
sV\u09aa
I13
sV\u09be\u09f0\u09f0
p796
I854
sV \u0985\u09f1
p797
I978
sV\u09a6\u09c0
p798
I816
sV\u09a6\u09c1
p799
I398
sV\u09c8\u099b\u09bf
p800
I438
sV\u0986\u09a6
p801
I797
sV\u09a6\u09c7
p802
I241
sV\u0986\u09a8
p803
I537
sV\u09bc\u09c7 
p804
I409
sV\u09a6\u09cd
p805
I147
sV \u09b6\u09bf
p806
I496
sV\u09b8\u0995
p807
I300
sV\u09be\u09af\u09bc
p808
I173
sV\u09be \u098f
p809
I933
sV\u099b\u09ac\u09bf
p810
I942
sV\u09be \u0985
p811
I714
sV\u09be \u0986
p812
I356
sV\u09b9\u09be\u09f0
p813
I658
sV\u09b9\u09cb
p814
I500
sV\u09a6\u09be
p815
I311
sV\u09a6\u09bf
p816
I149
sV\u09be \u0995
p817
I279
sV\u09b8\u09f0
p818
I568
sV\u0986\u09f0
p819
I92
sV\u09be \u09ac
p820
I317
sV\u09be\u09f0\u09bf
p821
I567
sV\u09be \u09ae
p822
I755
sV \u09a8\u09bf
p823
I246
sV \u09a8\u09be
p824
I232
sV\u09b8\u09cd
p825
I106
sV \u09af\u09c7
p826
I800
sV\u09be \u09a6
p827
I682
sV\u09b8\u09c7
p828
I429
sVo
I647
sV\u09af\u09bf
p829
I876
sV\u09af\u09be
p830
I143
sV\u09af\u09bc
p831
I20
sV\u09be \u09b9
p832
I191
sV\u09cd\u09a4\u09bf
p833
I367
sV\u09f0 \u09b6
p834
I916
sV\u09bf\u09f0\u09cd
p835
I644
sV\u09be\u09f0\u09a4
p836
I525
sV\u09b2\u09be
p837
I134
sV\u09be\u09f0\u09a3
p838
I707
sV\u09a8\u09be\u09ae
p839
I402
sV\u09bf\u09ac\u09b2
p840
I602
sV\u09b8\u09c7\u0987
p841
I794
sV\u09b8 
p842
I748
sV\u000a
I30
sV\u09a8 \u0986
p843
I703
sV\u098f
I58
sV\u09bf\u09b7\u09cd
p844
I592
sV\u0995\u09be\u09ae
p845
I990
sV\u09a3 \u0995
p846
I555
sV\u09af\u09cb
p847
I424
sV\u0996\u09a8 
p848
I461
sV\u099f
I42
sV\u09a4\u09be\u09f0
p849
I472
sV\u099b\u09c7 
p850
I502
sV\u000a \u099a
p851
I532
sV\u0964\u000a
p852
I33
sV\u09a8 \u09ac
p853
I666
sV\u0986\u0997
p854
I839
sV\u09f0\u09a5\u09ae
p855
I860
sV\u09af
I11
sV\u09c3\u09a4
p856
I365
sV\u09a8 \u09b8
p857
I824
sV\u09c2\u09f0
p858
I521
sV\u09c3\u09b7
p859
I820
sV\u09bf
I3
sV\u09cd\u09a4\u09c1
p860
I784
sV\u0995\u09be\u09b6
p861
I981
sV\u0993\u0981 
p862
I292
sV\u09bf\u09a6\u09cd
p863
I639
sV\u09a6 
p864
I656
sV\u0987\u09af\u09bc
p865
I430
sV\u09cb\u09f0 
p866
I642
sV\u09f1\u09be 
p867
I281
sV\u09b9\u09c1
p868
I648
sV\u09a8\u09c7 
p869
I552
sV\u09a5\u09be\u0995
p870
I877
sV \u09af\u09be
p871
I453
sV\u09ae\u09c2\u09b9
p872
I699
sV\u09ae\u09cd\u09ad
p873
I960
sV\u000a\u0995
p874
I578
sV\u0964
I32
sV\u098f\u0987
p875
I200
sV\u09cd\u09a4 
p876
I444
sV\u098f\u099f\u09be
p877
I625
sV\u09af 
p878
I259
sV\u098f\u099f
p879
I517
sV\u09a8\u09be 
p880
I408
sV\u098f\u0995 
p881
I645
sV\u09bc\u09a4 
p882
I827
sV\u09be\u09b9\u09bf
p883
I770
sV\u09cd\u099f\u09bf
p884
I871
sV\u098f\u0995
p885
I336
sV\u09be\u09f0 
p886
I69
sV\u099a\u09cd
p887
I704
sV \u09a4\u09c7
p888
I164
sV\u09a8\u09c0 
p889
I830
sV\u09bf\u099b\u09bf
p890
I305
sV\u09c0\u09a4 
p891
I740
sV\u09a3\u09bf
p892
I945
sV\u09a3\u09be
p893
I791
sV\u09b2\u09bf 
p894
I393
sV\u09a7\u09cd\u09af
p895
I884
sV\u09ac\u099b
p896
I993
sV\u0993\u0981\u09f0
p897
I649
sV\u09a4
I5
sV\u09ac\u09a8
p898
I804
sV\u09be\u09f0\u09c0
p899
I651
sV\u09b9\u09c8\u099b
p900
I283
sV\u09ac\u09b2
p901
I324
sV\u0985\u09a8\u09c1
p902
I546
sV\u09ac\u09be
p903
I63
sV\u09ac\u09bf
p904
I64
sV\u0985\u09a8\u09cd
p905
I926
sV\u099a\u09f0
p906
I510
sV\u09ac\u09b9
p907
I724
sV\u09ac\u09c7
p908
I175
sV\u09bf\u099b\u09c7
p909
I799
sV\u09ac\u09c1
p910
I390
sV\u09ac\u09cd
p911
I229
sV\u09ac\u09cb
p912
I493
sV\u09a4 
p913
I22
sV\u09f0\u09bf\u0995
p914
I828
sV\u09c1 \u09aa
p915
I900
sV\u09be\u0982
p916
I908
sV\u09f0\u09bf\u09af
p917
I620
sV\u0996\u09be 
p918
I936
sV\u09a3\u09f0
p919
I744
sV\u09f1\u09c7 
p920
I835
sV\u09f0\u09a4\u09bf
p921
I523
sV \u09ae\u09b9
p922
I752
sV\u09f0\u09b9
p923
I720
sV\u099a\u09a8
p924
I190
sV\u09a5 
p925
I961
sV\u09a3\u09cd
p926
I347
sV\u09a3\u09f0 
p927
I802
sV\u09c1\u09b2\u09bf
p928
I473
sV \u09a4\u09be
p929
I599
sV\u099a\u09be
p930
I198
sV\u099a\u09bf
p931
I251
sV\u09ac\u09f0
p932
I238
sV\u09c1\u09a8
p933
I561
sV \u0985\u09b8
p934
I590
sV\u099a\u09b2
p935
I439
s.