(dp1
V\u0906
I121
sV\u0927\u093f\u0915
p2
I561
sV \u0915\u0930
p3
I151
sV\u093e\u0930\u0923
p4
I797
sV\u094d\u0939\u094b
p5
I850
sV \u0926\u0947
p6
I378
sV\u0916
I131
sV\u093e 
p7
I16
sV \u092d\u093e
p8
I393
sV \u0926\u094d
p9
I529
sV \u0938
p10
I24
sV\u093e\u092e 
p11
I485
sV\u0947 \u0906
p12
I735
sV 
I0
sV\u0932\u0947\u0915
p13
I939
sV\u0926
I27
sV \u0909\u0924
p14
I771
sV \u0915\u092e
p15
I950
sV\u0902\u0964\u000a
p16
I238
sV\u0928\u094b
p17
I447
sV\u0928 \u092e
p18
I635
sV\u0936
I50
sV\u0930\u0926
p19
I749
sV\u0928\u0940
p20
I245
sV\u0928\u0941
p21
I508
sV\u0928\u0947
p22
I65
sV\u0915\u094b 
p23
I146
sV  
p24
I162
sV\u0935\u0930\u094d
p25
I402
sV\u0928\u093e
p26
I106
sV\u0928\u093f
p27
I161
sV\u090f 
p28
I181
sV\u0925\u093e 
p29
I334
sV\u0935\u093e\u0932
p30
I563
sV\u0930\u0940 
p31
I250
sV\u0930\u0924\u0947
p32
I918
sV\u093e\u0913\u0902
p33
I643
sV\u0930\u0924\u0940
p34
I855
sV \u092d\u0940
p35
I281
sV\u0930\u0947 
p36
I604
sV\u0966
I736
sV\u0917\u094d\u0930
p37
I501
sV \u0926\u093f
p38
I362
sV \u0914\u0930
p39
I123
sV\u091c 
p40
I462
sV\u0909\u0938\u0915
p41
I847
sV\u0901
I380
sV\u0905\u0927\u093f
p42
I644
sV\u093f\u0924\u094d
p43
I689
sV\u092c\u0928\u093e
p44
I777
sV\u0915\u0924\u093e
p45
I800
sV\u0916\u094d
p46
I786
sV\u094d\u0930\u0915
p47
I593
sV\u093c 
p48
I589
sV\u0924\u093f 
p49
I312
sV\u0938\u0940 
p50
I451
sV\u093f\u0928 
p51
I654
sV \u0926\u094b
p52
I773
sV\u0921
I83
sV\u094d\u0930\u0924
p53
I506
sV\u093e\u0930\u093e
p54
I416
sV\u0924\u0940 
p55
I265
sV\u0930\u094b\u0902
p56
I565
sV\u0938\u0947 
p57
I85
sV\u0925\u093f\u0924
p58
I928
sV\u0930 \u0930
p59
I811
sV\u0938\u093e\u0930
p60
I955
sV\u094d\u0930\u093e
p61
I268
sV\u094d\u0930\u093f
p62
I413
sV\u092f\u093e 
p63
I98
sV\u094b\u0928\u0947
p64
I984
sV\u0948\u0964
p65
I108
sV\u0941
I40
sV\u094d\u0930\u0947
p66
I584
sV\u0940 \u0938
p67
I246
sV\u094d\u0930\u0940
p68
I460
sV\u0930\u0924\u093e
p69
I824
sV\u0938\u094d\u0924
p70
I328
sV\u0938\u094d\u0925
p71
I299
sV\u093f\u092f\u093e
p72
I144
sV\u094d\u0930\u094b
p73
I708
sV\u093e\u0930\u094d
p74
I295
sV\u0943\u0924
p75
I562
sV\u0926\u094d\u0930
p76
I772
sV\u0948\u0902
p77
I154
sV\u0938\u094d\u0935
p78
I601
sV\u092a 
p79
I260
sV\u093e\u0930\u0940
p80
I667
sV\u0915\u0940 
p81
I82
sV\u0926 \u0915
p82
I876
sV\u0909\u0938
p83
I367
sV\u0948\u0938
p84
I874
sV\u0940\u0964\u000a
p85
I531
sV\u094d\u092e\u093e
p86
I862
sV\u0926\u094d\u092f
p87
I913
sV\u092f 
p88
I104
sV\u0909\u0928
p89
I276
sV\u0938\u094d\u091f
p90
I517
sV\u094d\u0937\u0947
p91
I906
sV\u091c\u0928
p92
I374
sV\u0938\u094d\u0915
p93
I703
sV\u0947  
p94
I968
sV\u0909\u0924
p95
I743
sV\u0916\u093e
p96
I568
sV\u093e\u0938
p97
I239
sV\u093e\u0939
p98
I363
sV\u093e\u0930
p99
I49
sV \u0917\u092f
p100
I316
sV\u093e\u0932
p101
I157
sV\u0915\u0947 
p102
I36
sV\u093e\u0935
p103
I301
sV\u093e\u0936
p104
I975
sV\u093e\u0937
p105
I704
sV\u093e\u0928
p106
I86
sV\u092f \u0915
p107
I427
sV\u093e\u092a
p108
I339
sV\u0925\u093e\u0964
p109
I474
sV\u093e\u092e
p110
I201
sV\u093e\u092f
p111
I228
sV\u091c\u094d
p112
I446
sV\u093e\u0924
p113
I147
sV\u091c\u094b
p114
I387
sV\u093e\u0926
p115
I255
sV\u093e\u0927
p116
I799
sV\u0920
I455
sV \u0938\u0915
p117
I537
sV\u093e\u091c
p118
I287
sV\u000a\u0915\u0947
p119
I784
sV\u093e\u0913
p120
I611
sV\u093e\u0915
p121
I495
sV\u093e\u0917
p122
I547
sV\u000a\u0907\u0938
p123
I390
sV\u0930
I3
sV\u093e\u090f
p124
I757
sV\u093e\u0901
p125
I573
sV\u0908 
p126
I233
sV\u092f \u0938
p127
I825
sV\u0948\u0964\u000a
p128
I110
sV\u093e\u0925 
p129
I493
sV\u093e\u0907
p130
I473
sV \u0909\u0938
p131
I433
sV\u0940
I12
sV \u0921
p132
I497
sV \u0926
p133
I79
sV \u0927
p134
I639
sV \u0924
p135
I136
sV \u0925
p136
I168
sV \u092a
p137
I31
sV \u092b
p138
I319
sV \u0928
p139
I69
sV\u0928\u094d
p140
I133
sV \u092e
p141
I29
sV \u092f
p142
I184
sV \u092c
p143
I68
sV \u092d
p144
I138
sV \u0932
p145
I89
sV \u0930
p146
I93
sV \u0936
p147
I166
sV \u0935
p148
I61
sV\u0925\u093e\u0928
p149
I996
sV\u0928 
p150
I48
sV \u0939
p151
I26
sV\u093e\u0964
p152
I203
sV\u0924\u0930 
p153
I931
sV \u0906
p154
I152
sV \u0907
p155
I173
sV \u0905
p156
I62
sV\u091c\u093e
p157
I142
sV\u091c\u093f
p158
I273
sV\u091c\u093c
p159
I595
sV \u0909
p160
I118
sV\u0909\u0928\u0915
p161
I598
sV \u090f
p162
I137
sV\u094b\u0924\u093e
p163
I733
sV\u094d\u0937 
p164
I755
sV \u0916
p165
I359
sV \u0917
p166
I122
sV \u0914
p167
I117
sV \u0915
p168
I7
sV \u091a
p169
I219
sV \u091b
p170
I746
sV\u090f\u0915
p171
I180
sV \u091f
p172
I488
sV \u091c
p173
I54
sV\u0928\u093f\u0915
p174
I701
sV\u092f\u094b
p175
I179
sV\u0926\u0930\u094d
p176
I881
sV\u092f\u0947
p177
I443
sV\u093e\u0901 
p178
I852
sV\u092f\u0942
p179
I730
sV\u092f\u0941
p180
I523
sV\u0928\u0939
p181
I496
sV\u0940 \u0936
p182
I934
sV\u091b
I308
sV\u0941\u091b
p183
I959
sV\u0924 \u092e
p184
I963
sV\u0915\u094b\u0902
p185
I914
sV\u094d\u0930 
p186
I336
sV\u092b
I156
sV\u0942\u0930\u094d
p187
I518
sV\u093e\u0928\u0947
p188
I550
sV\u093e\u0908
p189
I492
sV\u092a\u094d
p190
I77
sV\u091b 
p191
I908
sV\u092e\u0941\u0916
p192
I888
sV\u0928\u093f\u092f
p193
I715
sV\u092a\u0947
p194
I964
sV\u092a\u0940
p195
I864
sV\u093e\u0930 
p196
I165
sV\u092a\u0942
p197
I412
sV\u0947 \u091c
p198
I449
sV\u091f\u093f
p199
I627
sV\u092a\u093e
p200
I243
sV\u092a\u093f
p201
I620
sV\u092a\u0939
p202
I505
sV\u0930\u0924\u093f
p203
I770
sV\u094d\u0935\u093e
p204
I370
sV\u0947 \u0915
p205
I134
sV\u094b
I19
sV\u0948 \u091c
p206
I555
sV\u092a\u0930
p207
I135
sV\u094d\u0927 
p208
I756
sV\u092a\u0928
p209
I266
sV\u0947 \u0909
p210
I666
sV  \u0915
p211
I834
sV\u092a\u0924
p212
I734
sV\u0947 \u0905
p213
I267
sV\u092f\u0915
p214
I515
sV\u0947 \u0907
p215
I981
sV\u0964\u000a\u0935
p216
I713
sV\u093c\u093e
p217
I596
sV\u0941\u0924
p218
I690
sVa
I722
sV\u0935\u093e\u0930
p219
I407
sV\u0947 \u0938
p220
I171
sV\u0947 \u0939
p221
I190
sV\u092f\u0928
p222
I844
sV\u093f\u0924 
p223
I189
sV\u0947 \u0935
p224
I327
sV\u0947 \u0930
p225
I422
sV  \u092e
p226
I659
sV\u0947 \u0932
p227
I206
sV\u0947 \u092c
p228
I270
sV\u092f\u093e
p229
I52
sV\u0947 \u092e
p230
I306
sV\u0909\u0924\u094d
p231
I793
sV\u0947 \u0928
p232
I528
sV\u092f\u0939
p233
I286
sV\u094d\u092e 
p234
I637
sV\u0948 
p235
I164
sV\u0948 \u0914
p236
I822
sV\u092f\u093e\u0964
p237
I420
sV\u092f\u0930
p238
I970
sV\u0936 
p239
I408
sV\u0947\u0916
p240
I744
sV \u0935\u093e
p241
I398
sV\u0902
I11
sV \u0935\u0939
p242
I808
sV\u0930 \u0915
p243
I176
sV\u0947\u091f
p244
I599
sV\u092e\u094b
p245
I776
sV\u0947\u091c
p246
I851
sV \u0935\u0930
p247
I608
sV\u0940 \u0905
p248
I652
sV\u0935\u094d
p249
I439
sV\u0947\u0902
p250
I44
sV\u0930 \u0905
p251
I669
sV\u0902 \u0928
p252
I758
sV\u0935\u0947
p253
I389
sV\u092e\u093e\u0930
p254
I767
sV\u0935\u0940
p255
I526
sV\u0947\u0937
p256
I994
sV\u0947\u0936
p257
I351
sV\u0947\u0935
p258
I605
sV\u0932\u093e 
p259
I426
sV\u0947\u0932
p260
I481
sV\u0947\u0902 
p261
I47
sV\u0947\u0930
p262
I695
sV \u092e\u0941
p263
I622
sV\u0930 \u0939
p264
I527
sV\u0930 \u0938
p265
I292
sV \u092e\u0947
p266
I55
sV\u0947\u0938
p267
I886
sV\u0932
I20
sV\u0930 \u0926
p268
I575
sV \u091c\u0940
p269
I815
sV\u0930 \u092a
p270
I338
sV\u0930 \u0928
p271
I732
sV \u091c\u094b
p272
I437
sV\u0930 \u092e
p273
I371
sV\u0947\u0928
p274
I463
sV\u0928\u0939\u0940
p275
I519
sV\u0916\u094d\u092f
p276
I841
sV\u0942
I71
sV \u091c\u093f
p277
I373
sV \u091c\u093e
p278
I172
sV\u090f\u0915 
p279
I194
sV\u091f 
p280
I244
sV \u092e\u0939
p281
I641
sV\u0927\u093e\u0930
p282
I721
sV\u093f\u0932 
p283
I817
sV \u092e\u093f
p284
I581
sV \u092e\u093e
p285
I297
sV\u0928\u094b\u0902
p286
I621
sV\u0935\u0902
p287
I829
sV\u093c\u0940
p288
I857
sV\u0935\u093f
p289
I128
sV\u0935\u093e
p290
I120
sV\u0935\u0939
p291
I554
sV\u0935\u0938
p292
I849
sV\u0942\u092a 
p293
I403
sV\u0915\u093f\u092f
p294
I254
sV\u0935\u0930
p295
I261
sV\u0942\u092a
p296
I365
sV\u092a\u0941
p297
I466
sV \u0935\u094d
p298
I613
sV\u0947\u0964
p299
I539
sV\u0942\u0930
p300
I294
sV\u093f\u090f 
p301
I251
sV\u0942\u0932
p302
I940
sV\u093e\u0926 
p303
I475
sV\u0913\u0902
p304
I548
sV \u0935\u0947
p305
I900
sV\u0926\u0947\u0936
p306
I663
sV\u000a\u091c
p307
I861
sV\u093f\u0915\u093e
p308
I421
sV\u093f\u0938\u094d
p309
I709
sV\u0940 \u092a
p310
I315
sV\u092c\u093e\u0926
p311
I624
sV\u0940 \u092e
p312
I385
sV\u0940 \u092d
p313
I813
sV\u0940 \u092c
p314
I674
sV\u0940 \u0930
p315
I742
sV\u0930\u093e\u091c
p316
I454
sV\u0940 \u0935
p317
I617
sV\u0927 
p318
I469
sV\u000a\u0905
p319
I761
sV\u0940 \u0939
p320
I209
sV\u0928\u0915
p321
I341
sV\u091c\u093e 
p322
I633
sV\u0938\u092c
p323
I952
sV \u0915\u093e
p324
I88
sV \u0915\u093f
p325
I141
sV\u0902 
p326
I23
sV\u0915\u094d\u0930
p327
I438
sV\u0940\u0964
p328
I530
sV\u091c\u094d\u092f
p329
I893
sV\u000a\u0935
p330
I657
sV\u091f\u094d\u0930
p331
I571
sV\u092d
I66
sV\u0940\u092f 
p332
I419
sV\u0930\u0924 
p333
I956
sV\u0915\u094d\u0924
p334
I459
sV\u000a\u092e
p335
I551
sV\u000a\u092f
p336
I498
sV\u0940 \u0917
p337
I820
sV\u0936\u093e
p338
I348
sV\u0940 \u0915
p339
I174
sV\u0939 \u0915
p340
I915
sV\u094d\u092c
p341
I867
sV \u092a\u0942
p342
I662
sV\u092e\u0941
p343
I388
sV\u0940 \u091c
p344
I500
sV\u0940\u0902
p345
I350
sV\u0915\u0941\u091b
p346
I961
sV\u0947 \u0917
p347
I896
sV\u092f\u0915\u094d
p348
I945
sV\u094b\u0902
p349
I72
sV\u0915 \u0935
p350
I924
sV\u0926\u094d\u0935
p351
I456
sV\u094d
I5
sV \u0907\u0938
p352
I280
sV \u0915\u094d
p353
I364
sV\u0947 \u092d
p354
I836
sV \u0915\u094b
p355
I132
sV\u093e \u0909
p356
I779
sV\u0926\u094d\u0927
p357
I570
sV \u0915\u0947
p358
I43
sV \u0915\u0940
p359
I96
sV\u0915 
p360
I53
sV\u0924\u094b
p361
I631
sV\u093f\u092f
p362
I78
sV\u0940\u0924
p363
I597
sV\u0940\u0928
p364
I452
sV\u0940\u092e
p365
I909
sV\u0940\u092f
p366
I394
sV\u0940\u0932
p367
I978
sV\u000a\u0938
p368
I509
sV\u0947 \u090f
p369
I781
sV\u091f\u0940 
p370
I993
sV\u093e\u0928\u0940
p371
I809
sV\u093f\u0915\u094d
p372
I759
sV\u0924\u0947
p373
I204
sV\u0939\u0941\u0906
p374
I866
sV\u0948 \u0915
p375
I737
sV\u092f\u0939 
p376
I355
sV\u094c\u0930
p377
I875
sV\u092f\u094b\u0917
p378
I534
sV\u0936\u0928
p379
I739
sV \u0938\u0902
p380
I240
sV\u0938\u0928
p381
I655
sV\u0914\u0930
p382
I116
sV \u092a\u094d
p383
I103
sV\u093f\u0927
p384
I997
sV\u092f\u094b\u0902
p385
I317
sV\u0939\u0947
p386
I478
sV\u094d\u0921
p387
I676
sV \u092a\u0941
p388
I668
sV\u091c
I28
sV\u0928 \u0915
p389
I196
sV\u0936\u093f
p390
I429
sV\u0928 \u092a
p391
I738
sV \u0938\u092e
p392
I264
sV\u0924\u0925\u093e
p393
I720
sV\u092c
I39
sV\u0928 \u0939
p394
I745
sV\u0928 \u0938
p395
I606
sV \u0938\u093f
p396
I683
sV \u0938\u093e
p397
I232
sV\u0947 
p398
I13
sV\u094b\u0917
p399
I302
sV\u094d\u0925\u093f
p400
I774
sV\u094d\u0925\u093e
p401
I470
sV\u093c
I140
sV\u0916 
p402
I868
sV\u093e\u092f\u093e
p403
I632
sV \u0938\u094d
p404
I197
sV\u092f\u092e
p405
I922
sV \u0938\u0941
p406
I766
sV\u092a \u092e
p407
I672
sV \u0938\u0947
p408
I115
sV\u094c
I318
sV\u093f\u091c
p409
I782
sV\u0937\u094d\u091f
p410
I594
sV\u094d\u092a
p411
I395
sV \u092f\u093e
p412
I521
sV\u0915\u093f 
p413
I288
sV \u092a\u0939
p414
I558
sV\u0930\u0928\u0947
p415
I457
sV \u092a\u0930
p416
I159
sV\u0907\u0938
p417
I177
sVr
I949
sV\u0917\u0930
p418
I807
sV\u0935 
p419
I248
sV\u0938\u093f
p420
I324
sV\u0928\u093f\u0930
p421
I640
sV\u0907
I90
sV\u093e\u0930\u093f
p422
I954
sV\u0927\u093f
p423
I323
sV\u0927\u093e
p424
I353
sV \u092f\u0939
p425
I453
sV\u0938 \u0915
p426
I472
sV\u0902\u0915
p427
I450
sV\u0902\u0917
p428
I259
sV\u093e\u0928 
p429
I216
sV\u0917
I34
sV\u091c\u093e\u0924
p430
I272
sV\u093f\u0915 
p431
I207
sV\u0902\u091a
p432
I823
sV\u0902\u0924
p433
I311
sV \u0924\u0925
p434
I725
sV\u0902\u0926
p435
I425
sV\u0902\u0927
p436
I805
sV\u0902\u0921
p437
I499
sV\u0927
I87
sV\u093f\u0928\u094d
p438
I753
sV\u0902\u092c
p439
I830
sV\u0930\u093e 
p440
I300
sV\u0902\u0928
p441
I869
sV\u0902\u092a
p442
I891
sV\u000a\u092a
p443
I636
sV\u0915\u094d
p444
I92
sV\u0938 \u092a
p445
I947
sV\u0915\u094b
p446
I102
sV\u0915\u0947
p447
I32
sV\u0915\u0941
p448
I482
sV\u0915\u0940
p449
I74
sV\u094d\u0938 
p450
I687
sV\u0936\u0941
p451
I916
sV\u094d\u0930\u0926
p452
I926
sV\u0915\u093f
p453
I100
sV\u0915\u093e
p454
I45
sV\u0905\u092a\u0928
p455
I404
sV\u0947 \u092a
p456
I212
sV\u094d\u0937
p457
I188
sV\u0941 
p458
I545
sV\u093e \u0905
p459
I579
sV\u0964\u000a\u0938
p460
I566
sV\u0915\u0930
p461
I105
sV\u0902\u0928\u0947
p462
I898
sV\u0915\u0932
p463
I714
sV\u093e \u091c
p464
I247
sV\u0915\u092e
p465
I810
sV\u091f\u0940
p466
I543
sV\u093e \u0915
p467
I139
sV\u0915\u0924
p468
I461
sV\u093e \u0917
p469
I368
sV\u0964\u000a\u092a
p470
I699
sV\u0947 \u0926
p471
I435
sV\u0964\u000a\u092f
p472
I522
sV\u0964\u000a\u092e
p473
I588
sV\u0902\u0964
p474
I237
sV\u0901 
p475
I665
sV\u0940 
p476
I21
sV\u093e \u092e
p477
I343
sV\u0964\u000a\u0915
p478
I314
sV\u093e \u0928
p479
I464
sV\u0967
I685
sV\u093e \u092a
p480
I298
sV\u093e \u0925
p481
I432
sV\u093e \u0926
p482
I696
sV\u0964\u000a\u091c
p483
I942
sV\u094d\u0930\u092e
p484
I716
sV\u0936\u094d\u0930
p485
I831
sV\u093e \u0939
p486
I111
sV\u093e \u0938
p487
I258
sV\u0964\u000a\u0907
p488
I331
sV\u093e \u0935
p489
I590
sV\u0927\u094d
p490
I656
sV\u093e \u0930
p491
I865
sV\u0947 \u0924
p492
I901
sV\u093c\u0940 
p493
I972
sV\u0921 
p494
I400
sV\u092d\u0940
p495
I222
sV\u0915\u0930\u0928
p496
I409
sV\u0914\u0930 
p497
I119
sV\u094b\u0902 
p498
I84
sV\u094d\u091f 
p499
I711
sV\u092e\u0915
p500
I937
sV\u0947\u0915
p501
I417
sV\u094d\u0939
p502
I448
sV\u0913\u0902 
p503
I552
sV \u0935\u093f
p504
I182
sV\u091e
I986
sV\u0924\u0925
p505
I693
sV\u094d\u0915
p506
I333
sV\u092a\u0939\u0932
p507
I819
sV\u093e\u0932\u093e
p508
I897
sV\u092e\u0947\u0902
p509
I51
sV\u092e 
p510
I145
sV\u094d\u0917
p511
I941
sV\u092e
I15
sV\u093e\u0908 
p512
I576
sV \u0930\u0942
p513
I406
sV\u091c\u093f\u0938
p514
I549
sV\u093e
I1
sV\u0917\u092f\u093e
p515
I361
sV\u0902 \u0935
p516
I727
sV\u0939\u094b\u0924
p517
I358
sV\u0902 \u0939
p518
I494
sV\u0902 \u0938
p519
I277
sV\u0939\u094b\u0928
p520
I929
sV \u092a\u093e
p521
I410
sV\u093e\u0930\u0924
p522
I728
sV\u0942 
p523
I691
sV\u0902 \u092a
p524
I376
sV\u093e\u0932\u0947
p525
I987
sV\u0902 \u092c
p526
I791
sV\u0902 \u092e
p527
I278
sV\u0939\u094b\u0902
p528
I750
sV\u094d\u091e
p529
I998
sV\u0902 \u0915
p530
I114
sV\u0902 \u0914
p531
I821
sV\u0948\u0902\u0964
p532
I256
sV\u094d\u0924 
p533
I381
sV\u0935\u0947 
p534
I894
sV\u0902 \u091c
p535
I614
sV\u0937\u093e 
p536
I883
sV\u0902 \u0905
p537
I723
sV\u093f\u092f\u094b
p538
I377
sV\u0902 \u0909
p539
I902
sV\u0940\u0930
p540
I706
sV\u092d\u093f
p541
I754
sV\u092d\u093e
p542
I229
sV\u0902 \u090f
p543
I991
sV\u094d\u0935 
p544
I673
sV\u094d\u0925
p545
I221
sV\u094d\u0924
p546
I113
sV\u094d\u0927
p547
I397
sV\u094d\u0926
p548
I399
sV\u0938\u092e
p549
I210
sV\u094d\u0923
p550
I677
sV\u0909
I91
sV \u0938\u0930
p551
I843
sV\u094d\u092f
p552
I64
sV\u094d\u092e
p553
I214
sV\u094d\u0928
p554
I428
sV\u0936\u094d
p555
I271
sV\u094d\u0935
p556
I143
sV\u0935\u0939 
p557
I788
sV\u0939\u0948 
p558
I167
sV\u094d\u0936
p559
I870
sV\u0938\u093e
p560
I148
sV\u094d\u0930
p561
I35
sV\u094d\u0932
p562
I379
sV\u092d\u093e\u0930
p563
I688
sV\u0927\u094d\u092f
p564
I760
sV\u0938\u0930
p565
I383
sV\u093f\u0936\u094d
p566
I879
sV \u0928\u0947
p567
I275
sV\u094d\u0938
p568
I322
sV\u0938\u093e 
p569
I903
sV\u0941\u0932
p570
I618
sV\u0932\u0940 
p571
I396
sV\u092f\u0947 
p572
I600
sV\u092c 
p573
I436
sV\u0938\u0902
p574
I202
sV\u0902\u0917 
p575
I710
sV\u0915\u093e\u0930
p576
I198
sV\u0926\u0942
p577
I752
sV\u0926\u0947
p578
I257
sV\u0939
I14
sV\u094d\u091c
p579
I995
sV\u094d\u091f
p580
I195
sV\u0926\u094b
p581
I532
sV\u0926\u094d
p582
I169
sV\u0938\u0915
p583
I200
sV\u0926\u0930
p584
I557
sV\u0949
I340
sV\u092a\u0930 
p585
I223
sV\u0925\u0947\u0964
p586
I904
sV\u0926\u093e
p587
I303
sV\u0926\u093f
p588
I241
sV\u0922
I707
sV\u0909\u0928\u094d
p589
I592
sV\u0930\u093f\u0915
p590
I535
sV\u0924 \u0939
p591
I392
sV\u093f 
p592
I126
sV\u0930\u094d\u0935
p593
I553
sV \u0928\u0939
p594
I512
sV\u0930\u094d\u0937
p595
I741
sV \u0928\u093f
p596
I285
sV\u0940\u0902 
p597
I411
sV\u0938\u094d
p598
I75
sV\u0938\u0940
p599
I291
sV\u0938\u0941
p600
I658
sV\u091a 
p601
I510
sV\u0938\u0947
p602
I73
sV\u0930\u094d\u0924
p603
I796
sV\u0930\u094d\u0925
p604
I775
sV\u0924 \u0915
p605
I231
sV\u0922\u093c
p606
I927
sV\u093f\u0932\u093e
p607
I838
sV\u0930\u094d\u0923
p608
I790
sV\u0930\u094d\u092e
p609
I540
sV\u0907\u0928
p610
I504
sV\u092b\u093f
p611
I798
sV\u092b\u093c
p612
I854
sV \u0939\u0948
p613
I42
sV\u0932\u093f
p614
I149
sV\u094b\u0902\u0928
p615
I920
sV \u0939\u094b
p616
I178
sV\u092a\u0942\u0930
p617
I476
sV \u0939\u0940
p618
I491
sV\u0908
I183
sV\u0947\u0936 
p619
I853
sV\u0915\u0930 
p620
I284
sV\u0940\u0935
p621
I837
sV\u092c\u0947
p622
I930
sV\u094b\u0928
p623
I444
sV\u0918
I430
sV\u0939\u093e 
p624
I804
sV\u0921\u093c
p625
I253
sV\u0921\u093f
p626
I747
sV\u092e\u0928
p627
I681
sV\u092e\u092f
p628
I946
sV\u0939\u0948\u0902
p629
I175
sV\u0928
I9
sV\u091c\u092c
p630
I957
sV\u0948\u0902 
p631
I415
sV\u092e\u0939
p632
I577
sV \u0932\u0947
p633
I544
sV\u0947\u0924
p634
I386
sV\u092e\u093e
p635
I129
sV\u092e\u093f
p636
I249
sV\u092e\u0930
p637
I992
sV\u0938
I8
sV \u091c\u0928
p638
I943
sV\u093e\u0932 
p639
I513
sV \u0932\u094b
p640
I803
sV\u092e\u0948
p641
I973
sV\u0939\u094b 
p642
I542
sV\u092e\u094d
p643
I356
sV\u0930\u093f\u092f
p644
I572
sV\u092e\u0940
p645
I502
sV\u0948
I30
sV \u0932\u093f
p646
I215
sV\u0905\u0928\u0941
p647
I678
sV\u0939\u0948\u0964
p648
I109
sV\u092e\u0947
p649
I46
sV\u091a\u093e\u0930
p650
I764
sV\u094b \u0915
p651
I740
sV\u094d\u091a
p652
I583
sV \u0928\u093e
p653
I486
sV \u0932\u0917
p654
I718
sV\u093e\u0928\u093e
p655
I795
sV\u094d\u091f\u094d
p656
I780
sV\u094b \u092a
p657
I833
sVn
I951
sV\u094d\u0924\u093e
p658
I726
sV\u094d\u0924\u093f
p659
I525
sV \u0939\u093e
p660
I977
sV \u0939\u093f
p661
I976
sV\u094b \u0938
p662
I615
sV\u094d\u0924\u0930
p663
I958
sV\u0930 \u092c
p664
I731
sV\u091c\u093e\u0928
p665
I778
sV\u091a\u094d
p666
I842
sV \u0915\u0941
p667
I680
sV\u092c\u0902
p668
I863
sV\u0941\u0906
p669
I719
sV\u0938 
p670
I127
sV\u0941\u090f
p671
I971
sV\u0913
I354
sV\u0941\u0915
p672
I569
sV\u0941\u0916
p673
I801
sV\u0947\u0964\u000a
p674
I541
sV\u094d\u092f\u094b
p675
I806
sV\u0947\u0924\u094d
p676
I912
sV\u0915\u093e 
p677
I99
sV\u091f\u093e
p678
I785
sV\u0923
I125
sV\u0902\u091f
p679
I748
sV\u092a\u0928\u0947
p680
I679
sV\u0941\u0926
p681
I768
sV\u0941\u0928
p682
I625
sV\u092c\u0928
p683
I418
sV\u091f\u0930
p684
I700
sV\u0906 
p685
I932
sV\u0941\u0930
p686
I332
sV\u0937\u093e
p687
I647
sV\u0909\u092a
p688
I533
sV\u092c\u0930
p689
I765
sV\u092e\u093e\u0928
p690
I346
sV\u092c\u093e
p691
I220
sV\u0941\u0938
p692
I783
sV\u092c\u0938
p693
I938
sV\u092c\u0939
p694
I848
sV \u0936\u093e
p695
I634
sV\u0943
I289
sV \u0925\u0947
p696
I582
sV\u092c\u0940
p697
I705
sV\u093f\u0938
p698
I218
sV\u093f\u0937
p699
I794
sV\u093f\u0936
p700
I349
sV\u093f\u0935
p701
I440
sV\u092c\u094d
p702
I441
sV\u093f\u0932
p703
I199
sV\u093f\u0930
p704
I263
sV\u0926 
p705
I227
sV\u093f\u092e
p706
I578
sV\u091f\u094d
p707
I405
sV\u0917\u0924
p708
I889
sV\u093f\u092a
p709
I910
sV\u092a\u0930\u093f
p710
I648
sV\u093f\u0928
p711
I226
sV\u091f\u0947
p712
I619
sV\u093f\u0926
p713
I564
sV \u0924\u0915
p714
I724
sV\u093f\u0924
p715
I130
sV\u0930\u0942\u092a
p716
I382
sV\u093f\u091f
p717
I988
sV\u0930\u094d\u092f
p718
I567
sVi
I802
sV\u093f\u0916
p719
I966
sV\u093f\u0915
p720
I97
sV\u093f\u090f
p721
I235
sV\u091a\u093e
p722
I320
sV\u091a\u093f
p723
I591
sV\u093f\u0902
p724
I445
sV\u094b 
p725
I67
sV\u0926\u0940
p726
I434
sV\u0925\u093f
p727
I628
sV\u0925\u093e
p728
I158
sV\u0935\u093f\u0936
p729
I660
sV\u091a
I70
sV\u093f\u0926\u094d
p730
I751
sV\u0940\u0915
p731
I546
sV\u092c\u093f
p732
I816
sV\u0932\u093e
p733
I163
sV\u092a
I18
sV\u0932\u0924
p734
I814
sV \u0925\u093e
p735
I309
sV\u0938\u0915\u0947
p736
I524
sV\u0932 \u0915
p737
I431
sV\u0935\u093f\u0915
p738
I832
sV \u0939\u0941
p739
I372
sV\u0917 \u0915
p740
I651
sV\u0905\u0928\u094d
p741
I907
sV\u0932\u0928
p742
I789
sV\u092e\u0902
p743
I895
sV\u092a\u0928\u0940
p744
I974
sV \u0905\u0928
p745
I342
sV\u0937
I95
sV \u0905\u092a
p746
I347
sV\u091f \u0915
p747
I890
sV\u092a\u0941\u0930
p748
I917
sV\u0939 
p749
I170
sV\u0938\u0915\u093e
p750
I925
sV \u0905\u0927
p751
I487
sV \u0925\u0940
p752
I664
sV\u0939\u0940 
p753
I369
sV\u0924 
p754
I63
sV\u0938\u0915\u0924
p755
I712
sV\u0932\u0947
p756
I186
sV\u0932\u0940
p757
I283
sV\u0924\u093e 
p758
I107
sV\u0930 \u091c
p759
I935
sV\u0932\u094d
p760
I279
sV\u093e\u0902 
p761
I979
sV\u0928\u0947 
p762
I80
sV\u0932\u094b
p763
I366
sV\u0932\u0947 
p764
I345
sV\u0924\u0947 
p765
I230
sV\u0938\u093e\u0925
p766
I514
sV\u0902\u0938
p767
I484
sV\u0925\u0947
p768
I556
sV\u0925\u0940
p769
I587
sV \u0905\u0902
p770
I675
sV\u0936\u0928 
p771
I933
sV\u0928\u093e 
p772
I208
sV\u0915\u0943
p773
I769
sV\u093e\u092c
p774
I840
sV\u0930 \u0935
p775
I653
sV\u0905
I57
sV\u091c\u0940
p776
I423
sV \u0918
p777
I694
sV\u0930\u0915
p778
I305
sV\u0924\u0915 
p779
I629
sV\u0928\u0940 
p780
I335
sV\u093e \u090f
p781
I967
sV\u094d\u092f\u0915
p782
I661
sV\u0924\u094d\u092f
p783
I645
sV\u0924\u094d\u0930
p784
I225
sV\u0907\u0938\u0915
p785
I586
sV\u0928\u0915\u0947
p786
I953
sV\u0915
I2
sV\u0924\u094d\u0935
p787
I877
sV\u0915\u093e\u0932
p788
I962
sV\u0915\u0939
p789
I610
sV\u0938\u093e\u092e
p790
I944
sV\u092e \u0938
p791
I872
sV\u093e\u0923
p792
I826
sV\u0925
I60
sV\u094d\u092f\u093e
p793
I269
sV\u0917 
p794
I211
sV\u093f\u0902\u0917
p795
I980
sV\u0930\u0938
p796
I585
sV\u0930\u0939
p797
I290
sV\u0930\u093e
p798
I81
sV\u0930\u093f
p799
I153
sV\u093e\u0925
p800
I414
sV\u0930\u0923
p801
I307
sV\u093f\u0932\u094d
p802
I828
sV\u0935
I22
sV\u0926\u0940 
p803
I574
sV\u0930\u0924
p804
I187
sV\u0930\u0928
p805
I326
sV\u0930\u092e
p806
I490
sV\u0935\u0928
p807
I835
sV\u093f \u0915
p808
I471
sV\u0940\u0928 
p809
I698
sV\u0937 
p810
I503
sV \u0930\u0939
p811
I424
sV \u0930\u093e
p812
I352
sV\u0923 \u0915
p813
I580
sV\u0930\u0942
p814
I282
sV\u0930\u0940
p815
I160
sV\u0930\u0941
p816
I763
sV\u0930\u0947
p817
I224
sV\u0930\u094b
p818
I236
sV\u0902 \u0926
p819
I858
sV\u0905\u0902
p820
I616
sV\u0930\u094d
p821
I58
sV\u0915\u093f\u0938
p822
I969
sV\u0940 \u0928
p823
I670
sV\u0928\u094d\u0939
p824
I483
sV\u092a\u094d\u0930
p825
I94
sV\u0941\u091b 
p826
I965
sVo
I919
sV\u0928\u094d\u092f
p827
I516
sV\u0928\u094d\u0928
p828
I885
sV\u093e\u0924 
p829
I921
sV\u0930\u0923 
p830
I401
sV\u092a\u094d\u0924
p831
I818
sV\u094b\u0917 
p832
I609
sV\u094b\u0921
p833
I911
sV\u0935 \u0915
p834
I845
sV\u0915\u0943\u0924
p835
I985
sV\u094b\u0924
p836
I310
sV\u000a
I33
sV\u0925 
p837
I344
sV\u0924 \u0938
p838
I860
sV\u094b\u0932
p839
I717
sV\u094b\u0930
p840
I646
sV\u0914
I112
sV\u093e \u0914
p841
I612
sV\u0924\u094d\u0924
p842
I626
sV \u090f\u0915
p843
I191
sV\u0940 \u0926
p844
I729
sV\u0939\u0948
p845
I41
sV\u0939\u094b
p846
I150
sV\u0924\u094d
p847
I101
sV\u0964\u000a
p848
I38
sV\u0924
I10
sV\u0939\u0941
p849
I262
sV\u0939\u0940
p850
I213
sV\u0940 \u0924
p851
I762
sV\u0924\u0940
p852
I192
sV\u0924\u0941
p853
I602
sV\u0932 
p854
I124
sV\u094b\u0915
p855
I812
sV\u000a\u0915
p856
I296
sV\u094b\u091f
p857
I892
sV\u094b\u091c
p858
I839
sV\u0939\u0940\u0902
p859
I468
sV\u0926\u093f\u092f
p860
I638
sV\u0924\u0928
p861
I982
sV\u093e \u092c
p862
I856
sV\u0915 \u0915
p863
I442
sV\u0939\u0924
p864
I536
sV\u094d\u0928 
p865
I887
sV\u0924\u093e
p866
I76
sV\u0924\u093f
p867
I155
sV\u0939\u093f
p868
I391
sV\u0939\u093e
p869
I185
sV\u0947
I4
sV\u0939\u0930
p870
I538
sV\u0939\u0932
p871
I642
sV\u093e\u0902
p872
I252
sV\u0924\u0930
p873
I321
sV\u0930\u0902
p874
I792
sV\u0936\u094d\u0935
p875
I983
sV\u0964
I37
sV\u0915 \u0938
p876
I467
sV\u0915 \u0939
p877
I859
sV\u000a\u092f\u0939
p878
I697
sV\u093e\u0924\u093e
p879
I337
sV\u0915 \u092e
p880
I878
sV\u092e \u0915
p881
I477
sV\u0915 \u092a
p882
I607
sV\u091c\u094b 
p883
I507
sV\u0924\u0915
p884
I479
sV\u0964\u000a\u0905
p885
I827
sV\u000a\u0909
p886
I630
sV\u0935\u093e 
p887
I905
sV\u091c\u094d\u091e
p888
I999
sV\u0923 
p889
I193
sV\u090f
I59
sV\u092d\u093e\u0935
p890
I990
sV\u093e\u0932\u0940
p891
I871
sV\u093e\u0964\u000a
p892
I205
sV\u093e\u0924\u094d
p893
I702
sV\u0932\u093f\u092f
p894
I623
sV\u0935\u094d\u092f
p895
I489
sV\u091f
I56
sV\u0937\u0947
p896
I882
sV\u0930 \u0909
p897
I682
sV\u000a\u0907
p898
I304
sV\u0907\u0938 
p899
I375
sV\u093e\u0938 
p900
I520
sV\u0917\u092f
p901
I313
sV\u0937\u094d
p902
I325
sV\u092f
I17
sV\u0930 
p903
I25
sV\u0932\u093f\u090f
p904
I274
sV\u0917\u093e
p905
I384
sV\u094d\u092f 
p906
I217
sV\u092e\u0942
p907
I884
sV\u093f
I6
sV \u0932\u093e
p908
I948
sV\u092d\u0940 
p909
I242
sV\u0917\u0941
p910
I960
sV\u0917\u0940
p911
I787
sV\u0915\u0930\u0924
p912
I458
sV\u0928\u094d\u0926
p913
I923
sV\u0917\u094d
p914
I357
sV\u0917\u094b
p915
I650
sV\u0915\u094d\u0937
p916
I234
sV \u092c\u0928
p917
I480
sV\u0964\u000a\u0909
p918
I686
sV \u091a\u093e
p919
I880
sV\u0937\u093f
p920
I873
sV \u092c\u093e
p921
I293
sV \u092c\u0939
p922
I936
sV \u0915\u0939
p923
I649
sV \u0909\u0928
p924
I360
sV\u0932\u0917
p925
I511
sVe
I684
sV\u0905\u0928
p926
I329
sV\u0905\u092a
p927
I330
sV\u093f\u0930\u094d
p928
I671
sV\u0905\u0927
p929
I465
sV\u0930\u0935
p930
I846
sV \u0909\u092a
p931
I560
sV\u092e\u093f\u0932
p932
I559
sV\u0930\u0915\u093e
p933
I603
sV\u0937\u0947\u0924
p934
I989
sV\u0928\u093e\u092e
p935
I692
sV\u0905\u0932
p936
I899
s.