(dp1
V\u0d3e\u0d15\u0d4d
p2
I320
sV\u0d28\u0d7d
p3
I979
sV\u0d2d
I133
sV\u0d3f\u0d2a\u0d4d
p4
I353
sV\u0d35\u0d7c\u0d24
p5
I792
sV\u0d0e
I102
sV\u0d15\u0d30\u0d3f
p6
I753
sV\u0d41 \u0d15
p7
I631
sV \u0d2d\u0d3e
p8
I681
sV\u0d28\u0d24\u0d4d
p9
I247
sV\u0d1e
I185
sV 
I1
sV\u0d4b\u0d7c
p10
I873
sV\u0d15\u0d4d\u0d24
p11
I863
sV\u0d23 
p12
I913
sV\u0d2e
I14
sV\u0d28\u0d4b
p13
I678
sV\u0d28\u0d4d
p14
I13
sV\u000a\u0d28
p15
I768
sV\u0d28\u0d40
p16
I501
sV\u0d28\u0d41
p17
I63
sV\u0d28\u0d46
p18
I298
sV\u0d28\u0d47
p19
I499
sV\u0d3e
I7
sV\u0d7c\u0d37
p20
I871
sV  
p21
I201
sV\u0d1f\u0d4d\u0d30
p22
I651
sV\u0d28\u0d3e
p23
I141
sV\u0d28\u0d3f
p24
I81
sV\u0d21\u0d4d 
p25
I766
sV\u0d1f\u0d3f\u0d2f
p26
I583
sV\u0d2e\u0d4d\u0d2e
p27
I460
sV\u0d7c\u0d24
p28
I322
sV\u0d28\u0d2e
p29
I686
sV\u0d28\u0d2f
p30
I811
sV\u0d7c\u0d2e
p31
I623
sV\u0d36\u0d47\u0d37
p32
I882
sV\u0d41\u0d33\u0d4d
p33
I204
sV\u0d7c\u0d15
p34
I567
sV\u0d26\u0d47\u0d39
p35
I515
sV\u0d26\u0d47\u0d36
p36
I485
sV\u0d1f\u0d4d\u0d1f
p37
I105
sV\u0d1f\u0d3f\u0d15
p38
I780
sV\u0d28\u0d02
p39
I424
sV\u0d35\u0d46
p40
I574
sV \u0d15\u0d23
p41
I814
sV\u0d7e
I100
sV \u0d17\u0d4d
p42
I927
sV\u0d09
I176
sV\u0d21\u0d4d
p43
I473
sV\u0d41\u000a
p44
I110
sV\u0d23\u0d4d\u0d23
p45
I846
sV \u0d07\u0d35
p46
I864
sV\u0d28\u0d3f\u0d2f
p47
I726
sV\u0d4d \u0d38
p48
I366
sV \u0d06\u0d26
p49
I995
sV\u0d19
I34
sV\u0d24\u0d3f 
p50
I555
sV\u0d3f\u0d15\u0d7e
p51
I791
sV\u0d41 
p52
I89
sV\u0d3f\u0d7d 
p53
I84
sV\u0d15\u0d3e\u0d30
p54
I330
sV\u0d15\u0d3e\u0d32
p55
I529
sV\u0d39
I121
sV\u0d4d\u0d32\u0d3e
p56
I560
sV\u0d2d\u0d3e\u0d17
p57
I693
sV\u0d28\u0d41 
p58
I282
sV\u0d33\u0d41\u0d02
p59
I488
sV\u0d33\u0d41\u0d1f
p60
I495
sV\u0d24\u0d41\u000a
p61
I957
sV\u0d30\u0d3f\u0d15
p62
I274
sV\u0d41\u000a\u0d05
p63
I835
sV\u0d3f 
p64
I69
sV\u0d30\u0d3f\u0d2f
p65
I687
sV\u0d28\u0d41\u000a
p66
I164
sV\u0d3e\u0d33
p67
I675
sV\u0d3f \u0d05
p68
I921
sV\u0d1a 
p69
I633
sV\u0d30\u0d27
p70
I997
sV\u0d41\u000a\u0d2a
p71
I967
sV\u0d32\u0d46 
p72
I242
sV\u0d3f\u000a
p73
I347
sV\u0d33\u0d46 
p74
I939
sV\u0d09\u0d23
p75
I884
sV\u0d30\u0d4d\u0d2f
p76
I691
sV\u0d3e\u0d38
p77
I309
sV\u0d3e\u0d39
p78
I785
sV\u0d2a\u0d42
p79
I839
sV\u0d32\u0d3e\u0d23
p80
I964
sV\u200c 
p81
I702
sV\u0d4d\u0d24\u0d4d
p82
I216
sV\u0d3e\u0d30
p83
I149
sV\u0d08
I287
sV\u0d3e\u0d32
p84
I244
sV\u0d4d\u0d24\u0d41
p85
I243
sV\u0d4d\u0d24\u0d46
p86
I402
sV\u0d3e\u0d35
p87
I316
sV\u0d3e\u0d36
p88
I902
sV\u0d3e\u0d37
p89
I698
sV\u0d31\u0d41
p90
I325
sV\u0d3e\u0d2a
p91
I453
sV\u0d3f\u0d7c
p92
I534
sV\u0d4d\u0d1f\u0d3f
p93
I254
sV\u0d4d\u0d1f\u0d3e
p94
I372
sV\u0d3e\u0d2e
p95
I323
sV\u0d31\u0d46
p96
I144
sV\u0d18
I643
sV\u0d31\u0d4b
p97
I761
sV\u0d3e\u0d23
p98
I101
sV\u0d3e\u0d24
p99
I259
sV\u0d3e\u0d26
p100
I751
sV\u0d3e\u0d27
p101
I562
sV \u0d05\u0d24
p102
I648
sV\u0d3e\u0d1c
p103
I599
sV\u0d3e\u0d1f
p104
I451
sV\u0d28
I3
sV\u0d3f\u0d31\u0d4d
p105
I898
sV\u000a\u0d07\u0d24
p106
I896
sV\u0d3e\u0d15
p107
I223
sV\u0d15\u0d43
p108
I833
sV\u0d3e\u0d17
p109
I490
sV \u0d07\u0d28
p110
I865
sV\u0d38
I18
sV\u0d3e\u0d02
p111
I442
sV\u0d2e\u0d32
p112
I998
sV\u0d24\u0d3f\u0d30
p113
I480
sV\u0d36\u0d4d\u0d30
p114
I845
sV\u0d2e\u0d31\u0d4d
p115
I937
sV\u0d32\u0d4d\u0d32
p116
I249
sV\u0d15\u0d3e\u0d23
p117
I860
sV\u0d4d \u0d15
p118
I324
sV\u0d3e\u0d7c
p119
I275
sV\u0d3e\u0d7d
p120
I532
sV\u0d0e\u0d28\u0d4d
p121
I152
sV\u0d48
I230
sV\u0d4d \u0d1a
p122
I909
sV\u0d12\u0d30\u0d41
p123
I239
sV\u0d4d \u0d07
p124
I600
sV \u0d09\u0d2a
p125
I598
sV\u0d4d \u0d05
p126
I379
sV\u0d2f\u0d2e\u0d3e
p127
I684
sV\u0d4d \u0d0e
p128
I543
sV \u0d09\u0d23
p129
I900
sV\u0d4d \u0d35
p130
I385
sV\u0d31\u0d35
p131
I923
sV\u0d4d\u0d1f\u0d4d
p132
I209
sV\u0d1c\u0d3f
p133
I619
sV\u0d4d\u0d1f\u0d41
p134
I263
sV\u0d15\u0d42\u0d1f
p135
I509
sV\u0d41 \u0d38
p136
I981
sV\u0d31\u0d3f
p137
I148
sV\u0d31\u0d3e
p138
I530
sV\u0d47\u0d36
p139
I416
sV\u0d3e\u0d7c 
p140
I916
sV\u0d4d \u0d24
p141
I704
sV\u0d4d\u0d24\u0d3e
p142
I549
sV\u0d4d\u0d24\u0d3f
p143
I72
sV\u0d4d \u0d2e
p144
I443
sV\u0d4d \u0d2a
p145
I297
sV\u0d42\u0d2a
p146
I838
sV\u0d4d \u0d28
p147
I507
sV\u0d2f\u0d4d
p148
I170
sV\u0d2f\u0d4b
p149
I314
sV\u0d4d 
p150
I24
sV\u0d2f\u0d47
p151
I885
sV\u0d2f\u0d46
p152
I584
sV\u0d3e\u0d02 
p153
I765
sV\u0d33\u0d4d\u0d33
p154
I159
sV\u0d2f\u0d42
p155
I590
sV\u0d2f\u0d41
p156
I83
sV\u0d46 \u0d38
p157
I452
sV\u0d13
I620
sV\u0d7c\u0d35
p158
I920
sV\u0d3f\u0d28\u0d46
p159
I797
sV\u0d2f\u0d4d\u0d15
p160
I629
sV\u0d23
I29
sV\u0d2f\u0d4d\u0d24
p161
I614
sV\u0d4d\u200c
p162
I337
sV\u0d2f\u0d4d\u0d2f
p163
I454
sV\u0d4d\u000a
p164
I126
sV\u0d2e\u0d3e\u0d2f
p165
I160
sV\u0d2a\u0d4d
p166
I41
sV\u0d33
I30
sV\u0d2f\u0d7c
p167
I993
sV\u0d2f\u0d7b
p168
I754
sV\u0d2a\u0d4b
p169
I313
sV\u0d2a\u0d46
p170
I192
sV\u0d2a\u0d47
p171
I612
sV\u0d2e\u0d3e\u0d23
p172
I344
sV\u0d2a\u0d41
p173
I276
sV\u0d7c\u0d24\u0d4d
p174
I326
sV\u0d46\u0d28\u0d4d
p175
I401
sV\u0d2a\u0d3e
p176
I284
sV\u0d2a\u0d3f
p177
I172
sV\u0d3f \u0d28
p178
I930
sV\u0d38\u0d4d 
p179
I299
sV\u0d2f\u0d02
p180
I423
sV\u0d2a\u0d2f
p181
I727
sV\u0d2a\u0d28
p182
I874
sV\u0d3f\u0d2f 
p183
I365
sV\u0d2f\u0d19
p184
I778
sV\u0d07\u0d28\u0d4d
p185
I744
sV\u0d2a\u0d24
p186
I482
sV\u0d2f\u0d15
p187
I649
sV\u0d23\u0d4d\u000a
p188
I376
sVa
I577
sV\u0d2f\u0d2e
p189
I405
sV\u0d28\u0d4d\u0d27
p190
I866
sV\u0d2f\u0d2a
p191
I606
sV\u0d4d\u0d38\u0d4d
p192
I847
sV\u0d2f\u0d28
p193
I899
sV\u0d2a\u0d15
p194
I695
sV\u0d2f\u0d24
p195
I265
sV\u0d7e\u0d15
p196
I553
sV\u0d2f\u0d3f
p197
I53
sV\u0d2f\u0d3e
p198
I117
sV\u0d2f\u0d35
p199
I889
sV\u0d33\u0d24
p200
I818
sV\u0d7a 
p201
I917
sV\u0d4d\u0d31\u0d41
p202
I740
sV\u0d47\u0d15
p203
I469
sV \u0d35\u0d3f
p204
I196
sV\u0d35\u0d3f\u0d27
p205
I996
sV\u0d4d\u0d31\u0d46
p206
I166
sV\u0d1c\u0d28
p207
I565
sV\u0d4d\u0d31\u0d4d
p208
I211
sV\u200c
I271
sV\u0d35\u0d4d
p209
I334
sV\u0d2a\u0d47\u0d30
p210
I919
sV\u0d7d \u0d05
p211
I656
sV\u0d35\u0d3f\u0d36
p212
I943
sV\u0d35\u0d3f\u0d35
p213
I999
sV\u0d2f\u0d41\u0d33
p214
I976
sV\u0d35\u0d47
p215
I411
sV\u0d1a
I23
sV\u0d35\u0d41
p216
I257
sV\u0d35\u0d40
p217
I685
sV\u0d1f\u0d15
p218
I545
sV\u0d47\u0d37
p219
I448
sV\u0d35\u0d7c
p220
I262
sV\u0d4d\u0d28\u0d4d
p221
I321
sV\u0d47\u0d31
p222
I870
sV\u0d47\u0d30
p223
I380
sV \u0d2e\u0d41
p224
I400
sV\u0d2a
I10
sV\u0d47\u0d39
p225
I496
sV\u0d4d\u0d28\u0d41
p226
I95
sV\u0d15\u0d2f\u0d41
p227
I431
sV\u0d47\u0d24
p228
I683
sV\u0d28\u0d24
p229
I155
sV\u0d35\u0d3f\u0d15
p230
I945
sV\u0d47\u0d2f
p231
I729
sV\u0d4d\u0d1a\u0d4d
p232
I461
sV\u0d35\u0d3f\u0d1f
p233
I716
sV\u000a\u0d08
p234
I922
sV\u0d2e\u0d24\u0d4d
p235
I946
sV\u0d30\u0d41\u0d1f
p236
I887
sV\u0d35\u0d15
p237
I978
sV\u000a\u0d35
p238
I658
sV\u0d4d\u0d28\u0d24
p239
I206
sV\u0d4a
I189
sV\u0d24 
p240
I428
sV\u0d1a\u0d4d\u0d1a
p241
I98
sV\u0d4d\u0d28\u0d3f
p242
I381
sV\u0d28\u0d19
p243
I673
sV \u0d2e\u0d3e
p244
I370
sV\u0d39\u0d02 
p245
I741
sV\u0d05\u0d24\u0d3f
p246
I837
sV\u0d42\u0d1f
p247
I341
sV\u0d3e\u0d2f 
p248
I264
sV\u0d4d\u0d19\u0d3f
p249
I708
sV\u0d28\u0d1f
p250
I522
sV\u0d35\u0d3f
p251
I88
sV\u0d35\u0d3e
p252
I198
sV\u0d1a\u0d41\u000a
p253
I491
sV\u0d35\u0d38
p254
I508
sV\u0d31\u0d3f\u0d2f
p255
I457
sV\u0d47\u0d7c
p256
I897
sV\u0d35\u0d30
p257
I269
sV\u0d1f\u0d41\u0d15
p258
I546
sV\u0d35\u0d32
p259
I816
sV\u0d46 
p260
I36
sV \u0d35\u0d4d
p261
I769
sV\u0d35\u0d2f
p262
I478
sV\u0d35\u0d28
p263
I512
sV\u0d35\u0d24
p264
I764
sV \u0d35\u0d46
p265
I980
sV\u0d7a
I518
sV\u0d4d\u0d31\u0d3f
p266
I462
sV\u0d0e\u0d28
p267
I150
sVr
I808
sV\u0d17\u0d4d\u0d30
p268
I539
sV\u0d24\u0d4d\u0d24
p269
I33
sV\u0d1f\u0d3e\u0d2f
p270
I832
sV\u0d4d\u0d26\u0d47
p271
I450
sV \u0d15\u0d4b
p272
I699
sV\u0d7c\u0d28
p273
I609
sV\u0d43
I359
sV\u0d24\u0d4d\u0d2f
p274
I397
sV\u0d24\u0d4d\u0d30
p275
I167
sV\u0d41\u0d1f\u0d46
p276
I182
sV\u0d15
I4
sV\u0d30\u0d19\u0d4d
p277
I642
sV\u0d33\u0d4d
p278
I158
sV\u0d1e\u0d4d\u0d1e
p279
I500
sV\u0d4d\u0d2f\u0d02
p280
I736
sV\u0d33\u0d41
p281
I208
sV\u000a\u0d0e\u0d28
p282
I906
sV\u0d1e\u0d4d\u0d1a
p283
I742
sV\u0d33\u0d46
p284
I664
sV\u0d4d\u0d33 
p285
I232
sV \u0d15\u0d3e
p286
I300
sV \u0d15\u0d3f
p287
I989
sV\u0d25
I175
sV\u0d2f\u0d41\u0d02
p288
I186
sV\u0d2a\u0d3f\u0d28
p289
I891
sV\u0d3f\u0d38
p290
I364
sV\u0d24\u0d41\u0d1f
p291
I569
sV\u0d07\u0d24\u0d3f
p292
I904
sV\u0d35
I12
sV\u0d4d\u0d2f\u0d2e
p293
I634
sV\u0d2f\u0d41\u0d1f
p294
I352
sV\u0d4b\u0d1f\u0d4d
p295
I715
sV\u0d3f\u0d26\u0d4d
p296
I770
sV\u0d2e\u0d4d\u0d2a
p297
I367
sV\u0d4b
I40
sV\u0d1f 
p298
I872
sV\u0d4d\u0d2f\u0d24
p299
I575
sV\u0d46 \u0d15
p300
I414
sV\u0d7e\u0d15\u0d4d
p301
I568
sV\u0d4d  
p302
I911
sV\u0d3e\u0d38\u0d4d
p303
I720
sV\u0d2a\u0d30
p304
I354
sV\u0d05\u0d31
p305
I968
sV\u0d46\u0d19
p306
I820
sV\u0d2a\u0d31
p307
I752
sV\u0d46 \u0d05
p308
I468
sV \u0d15\u0d4d
p309
I587
sV \u0d07\u0d24
p310
I615
sV\u0d46 \u0d06
p311
I807
sV \u0d15\u0d4a
p312
I701
sV\u0d40\u0d15
p313
I445
sV\u0d4d\u0d2f\u0d42
p314
I881
sV\u0d4d\u0d2f\u0d41
p315
I579
sV \u0d15\u0d41
p316
I467
sV \u0d15\u0d42
p317
I672
sV \u0d38\u0d2e
p318
I592
sV\u0d41\u0d02 
p319
I52
sV \u0d0e\u0d28
p320
I174
sV\u0d39\u0d24\u0d4d
p321
I895
sV\u0d33\u0d3f
p322
I153
sV\u0d33\u0d3e
p323
I637
sV\u0d40\u0d24
p324
I929
sV\u0d2a\u0d4d\u0d30
p325
I114
sV\u0d28\u0d4d\u0d31
p326
I140
sV\u0d2a\u0d4d\u0d2a
p327
I99
sV\u0d46 \u0d24
p328
I758
sV\u0d28\u0d4d\u0d28
p329
I27
sV\u0d46\u0d2f\u0d41
p330
I582
sV\u0d15\u0d4a\u0d23
p331
I836
sV\u0d40\u0d35
p332
I772
sV\u0d28\u0d4d\u0d24
p333
I268
sV\u0d46\u0d2f\u0d4d
p334
I281
sV\u0d28\u0d4d\u0d26
p335
I647
sV\u0d46 \u0d2e
p336
I542
sV\u0d46 \u0d28
p337
I663
sV \u0d35\u0d30
p338
I723
sV\u0d46 \u0d2a
p339
I306
sV\u0d33\u0d3f\u0d32
p340
I503
sV\u0d2a\u0d30\u0d3f
p341
I830
sV\u0d2e\u0d3e\u0d24
p342
I961
sV \u0d38\u0d02
p343
I438
sV\u0d4d\u0d35\u0d3e
p344
I975
sV \u0d2a\u0d4d
p345
I142
sV\u0d7d \u0d15
p346
I657
sV \u0d2a\u0d4b
p347
I842
sV\u0d3f\u0d26
p348
I636
sV\u0d4d\u0d30\u0d02
p349
I950
sV \u0d2a\u0d47
p350
I804
sV \u0d2a\u0d41
p351
I475
sV\u0d36\u0d3e
p352
I747
sV\u0d36\u0d3f
p353
I626
sV\u0d7d\u0d15
p354
I630
sV\u0d28 \u0d2a
p355
I718
sV\u0d28\u0d41\u0d33
p356
I984
sV\u0d24
I6
sV\u0d15\u0d33\u0d41
p357
I417
sV\u0d09\u0d23\u0d4d
p358
I914
sV\u0d2f\u0d3f\u0d7d
p359
I317
sV\u0d7d \u0d2a
p360
I484
sV\u0d7d \u0d28
p361
I418
sVt
I782
sV\u0d7d \u0d35
p362
I709
sV\u0d32 
p363
I486
sV\u0d34
I188
sV\u0d3f\u0d28\u0d3e
p364
I834
sV \u0d38\u0d3f
p365
I878
sV\u0d30\u0d42\u0d2a
p366
I991
sV\u0d4d\u0d19\u0d33
p367
I191
sV\u0d7d \u0d38
p368
I773
sV \u0d38\u0d3e
p369
I510
sV\u0d2f\u0d2f
p370
I827
sV\u0d19\u0d3f
p371
I700
sV \u0d38\u0d4d
p372
I218
sV\u0d33\u0d3f\u0d7d
p373
I371
sV\u0d47\u0d15\u0d4d
p374
I610
sV\u0d2a\u0d1f
p375
I938
sV\u0d24\u0d3e\u0d23
p376
I912
sV\u0d15\u0d33\u0d3f
p377
I439
sV\u0d4d\u0d2a
p378
I68
sV\u0d4d\u0d25\u0d3f
p379
I934
sV\u0d3f\u0d1a
p380
I116
sV\u0d07\u0d35
p381
I635
sV \u0d2a\u0d3e
p382
I621
sV\u0d2f\u0d3f\u0d30
p383
I250
sV\u0d2f\u0d3f\u0d32
p384
I350
sV\u0d3f\u0d1f\u0d4d
p385
I434
sV\u0d4b\u0d1f
p386
I375
sV\u0d36\u0d4d
p387
I343
sV\u0d1a\u0d24
p388
I789
sV\u0d28\u0d3e\u0d23
p389
I824
sV\u0d07\u0d24
p390
I382
sV\u0d4d\u0d31
p391
I48
sV\u0d41\u0d2e\u0d3e
p392
I394
sV\u0d3f\u0d15
p393
I50
sV\u0d28\u0d3e\u0d2f
p394
I489
sV\u0d38\u0d3f
p395
I183
sV\u0d30\u0d3e\u0d1c
p396
I660
sV\u0d24\u0d28\u0d4d
p397
I514
sV\u0d15\u0d7e
p398
I229
sV\u0d27\u0d3f
p399
I368
sV\u0d27\u0d3e
p400
I415
sV\u0d7b\u0d38
p401
I861
sV\u0d0f
I463
sV\u0d15\u0d41\u0d28
p402
I161
sV\u0d02\u0d17
p403
I403
sV\u0d3e\u0d24\u0d4d
p404
I481
sV\u0d30\u0d23\u0d4d
p405
I831
sV\u0d35\u0d4d\u0d2f
p406
I595
sV\u0d3f\u0d30\u0d3f
p407
I471
sV\u0d1f
I11
sV\u0d34\u0d3f
p408
I483
sV\u0d4d\u0d30\u0d15
p409
I848
sV\u0d15\u0d41\u0d1f
p410
I935
sV \u0d24\u0d3e
p411
I852
sV\u0d02\u0d2c
p412
I854
sV\u0d4d\u0d15\u0d3f
p413
I277
sV\u0d4d\u0d15\u0d3e
p414
I205
sV\u0d15\u0d41\u0d15
p415
I476
sV\u0d2f
I8
sV\u0d15\u0d4d
p416
I21
sV\u0d2e\u0d47
p417
I525
sV\u0d15\u0d4d 
p418
I240
sV\u0d15\u0d4b
p419
I389
sV\u0d15\u0d4a
p420
I399
sV\u0d15\u0d47
p421
I513
sV\u0d15\u0d46
p422
I714
sV\u0d15\u0d41
p423
I70
sV\u0d3f
I2
sV\u0d15\u0d42
p424
I377
sV\u0d4d\u0d30\u0d26
p425
I734
sV\u0d15\u0d3f
p426
I178
sV\u0d15\u0d3e
p427
I91
sV\u0d32\u0d41\u0d02
p428
I373
sV\u0d2e\u0d3f\u0d15
p429
I901
sV\u0d15\u0d30
p430
I310
sV\u0d15\u0d33
p431
I165
sV\u000a\u0d2a
p432
I383
sV\u0d15\u0d2f
p433
I305
sV\u0d15\u0d2e
p434
I624
sV\u0d4d\u0d15\u0d41
p435
I103
sV\u0d15\u0d28
p436
I924
sV\u0d15\u0d2a
p437
I682
sV\u0d4d\u0d15\u0d4d
p438
I193
sV\u0d15\u0d24
p439
I815
sV\u0d4b\u0d17\u0d3f
p440
I725
sV\u0d24\u0d46 
p441
I387
sV\u0d15\u0d23
p442
I601
sV\u0d34\u0d41
p443
I745
sV\u0d28\u0d3f\u0d7c
p444
I662
sV\u0d3f\u0d30\u0d41
p445
I194
sV\u0d31\u0d4d\u0d31
p446
I111
sV\u0d3f\u0d28\u0d41
p447
I435
sV\u0d4d\u0d30\u0d2e
p448
I521
sV\u0d32\u0d41\u0d33
p449
I918
sV\u0d27\u0d4d
p450
I940
sV\u0d15\u0d41\u0d31
p451
I719
sV\u0d4b\u0d7e 
p452
I903
sV\u0d15\u0d02
p453
I868
sV\u0d30\u0d19
p454
I640
sV\u0d37\u0d02 
p455
I894
sV\u0d06
I132
sV\u0d27\u0d3f\u0d15
p456
I856
sV\u0d4d\u0d1f 
p457
I942
sV \u0d35\u0d3e
p458
I697
sV\u0d2a\u0d3f\u0d15
p459
I676
sV\u0d4b 
p460
I464
sV\u0d30\u0d02 
p461
I388
sV\u0d16
I361
sV\u0d3e 
p462
I625
sV\u0d28\u0d46 
p463
I459
sV\u0d4d\u0d15
p464
I28
sV\u0d1f\u0d24\u0d4d
p465
I556
sV\u0d26
I46
sV\u0d36\u0d47
p466
I732
sV\u0d36
I86
sV\u0d3f\u0d1a\u0d4d
p467
I125
sV\u0d09\u0d2a\u0d2f
p468
I851
sV\u0d02 \u0d35
p469
I331
sV\u0d46
I15
sV\u0d02 \u0d38
p470
I406
sV \u0d2a\u0d3f
p471
I641
sV\u0d35\u0d30\u0d41
p472
I650
sV\u0d30\u0d24\u0d4d
p473
I355
sV\u0d02 \u0d24
p474
I537
sV\u0d02 \u0d28
p475
I333
sV\u0d02 \u0d2a
p476
I279
sV\u0d02 \u0d2e
p477
I413
sV\u0d02 \u0d15
p478
I285
sV\u0d4d\u0d24 
p479
I788
sV\u0d02 \u0d1a
p480
I363
sV\u0d25\u0d3e
p481
I437
sV\u0d02 \u0d05
p482
I328
sV\u0d3e\u0d30\u0d23
p483
I960
sV\u0d02 \u0d07
p484
I713
sV\u0d02 \u0d06
p485
I722
sV\u0d02 \u0d09
p486
I735
sV\u0d2d\u0d3f
p487
I605
sV\u0d2d\u0d3e
p488
I349
sV\u0d35\u0d33
p489
I806
sV\u0d02 \u0d0e
p490
I666
sV\u0d4d\u0d25
p491
I231
sV\u0d4d\u0d24
p492
I26
sV\u0d4d\u0d27
p493
I301
sV\u0d4d\u0d26
p494
I252
sV\u0d38\u0d2e
p495
I433
sV\u0d3f\u0d24\u0d4d
p496
I348
sV\u0d4d\u0d23
p497
I692
sV\u0d4d\u0d2f
p498
I56
sV\u0d4d\u0d2e
p499
I245
sV\u0d4d\u0d28
p500
I25
sV\u0d2b\u0d4d
p501
I628
sV\u0d41\u0d28\u0d4d
p502
I58
sV\u0d4d\u0d35
p503
I238
sV\u0d4d\u0d37
p504
I253
sV\u0d47\u0d30\u0d3f
p505
I794
sV\u0d38\u0d3e
p506
I296
sV\u0d4d\u0d30
p507
I37
sV\u0d4d\u0d33
p508
I156
sV\u0d4d\u0d32
p509
I169
sV \u0d28\u0d47
p510
I777
sV\u0d4d\u0d38
p511
I318
sV\u0d21
I147
sV\u0d2c\u0d3f
p512
I737
sV\u0d4d\u0d30\u0d24
p513
I407
sV \u0d08 
p514
I422
sV\u0d35 
p515
I786
sV\u0d38\u0d02
p516
I278
sV\u0d38\u0d3f\u0d28
p517
I907
sV\u0d31
I20
sV\u0d3f\u0d38\u0d4d
p518
I550
sV\u0d4d\u0d30\u0d35
p519
I554
sV\u0d3f\u0d2f\u0d41
p520
I398
sV\u0d2f\u0d24\u0d4d
p521
I336
sV\u0d06\u0d26
p522
I841
sV\u0d26\u0d47
p523
I237
sV\u0d4d\u0d30\u0d3e
p524
I396
sV\u0d4d\u0d30\u0d3f
p525
I436
sV\u0d4d\u0d1f
p526
I44
sV\u0d4d\u0d1e
p527
I429
sV\u0d4d\u0d19
p528
I96
sV\u0d26\u0d4d
p529
I129
sV\u0d4d\u0d30\u0d38
p530
I825
sV\u0d4d\u0d1a
p531
I82
sV\u0d41
I5
sV\u0d1f\u0d19\u0d4d
p532
I608
sV \u0d28\u0d1f
p533
I597
sV\u0d4d\u0d30\u0d40
p534
I677
sV\u0d4d\u0d19\u0d7e
p535
I267
sV\u0d38\u0d4d\u0d24
p536
I378
sV\u0d38\u0d4d\u0d25
p537
I286
sV\u0d3f\u0d2f\u0d3f
p538
I345
sV\u0d3f\u0d2f\u0d3e
p539
I432
sV\u0d26\u0d3f
p540
I498
sV\u0d38\u0d4d\u0d38
p541
I963
sV\u0d38\u0d7c
p542
I962
sV\u0d7e 
p543
I135
sV\u0d38\u0d4d\u0d35
p544
I559
sV\u0d35\u0d41\u0d02
p545
I390
sV\u0d38\u0d4d\u0d31
p546
I487
sV\u0d15\u0d7e 
p547
I291
sV\u0d23\u0d02 
p548
I644
sV\u0d24\u0d2e\u0d3e
p549
I855
sV \u0d28\u0d3f
p550
I173
sV \u0d28\u0d3e
p551
I618
sV\u0d4d\u0d2e\u0d3e
p552
I733
sV\u0d38\u0d4d
p553
I55
sV\u0d38\u0d41
p554
I711
sV\u0d38\u0d46
p555
I905
sV\u0d2f 
p556
I131
sV\u0d4d\u0d28\u0d46
p557
I843
sVs
I947
sV\u0d30\u0d3f\u0d1a
p558
I586
sV\u0d07\u0d28
p559
I671
sV\u0d30\u0d15\u0d4d
p560
I857
sV\u0d35\u0d7c 
p561
I932
sV\u0d3f\u0d15 
p562
I774
sV\u0d28\u0d19\u0d4d
p563
I674
sV\u0d15\u0d02 
p564
I954
sV\u0d4d\u0d28\u0d40
p565
I966
sV\u0d21\u0d3f
p566
I511
sV\u0d2e\u0d28
p567
I661
sV\u0d20
I931
sV\u0d46\u0d15\u0d4d
p568
I724
sV\u0d2e\u0d2f
p569
I958
sV\u0d28\u0d24\u0d3f
p570
I730
sV\u0d23\u0d41
p571
I941
sV\u0d30\u0d4b
p572
I470
sV\u0d2e\u0d24
p573
I552
sV\u0d30
I9
sV\u0d1a\u0d3f\u0d24
p574
I659
sV\u0d2e\u0d3e
p575
I65
sV\u0d2e\u0d3f
p576
I233
sV\u0d2e\u0d30
p577
I959
sV\u0d2e\u0d31
p578
I712
sV\u0d08 
p579
I315
sV\u0d4d\u0d1a\u0d41
p580
I272
sV\u0d2a\u0d24\u0d4d
p581
I802
sV\u0d40
I76
sV \u0d21
p582
I593
sV \u0d26
p583
I360
sV\u0d2e\u0d4d
p584
I200
sV \u0d24
p585
I118
sV \u0d2a
p586
I39
sV\u0d2e\u0d41
p587
I199
sV \u0d28
p588
I73
sV \u0d2e
p589
I79
sV \u0d2f
p590
I533
sV \u0d2c
p591
I255
sV \u0d2d
p592
I340
sV \u0d32
p593
I304
sV\u0d42\u0d7c
p594
I776
sV \u0d30
p595
I227
sV\u0d1f\u0d4d 
p596
I329
sV \u0d36
p597
I307
sV\u0d7c 
p598
I177
sV \u0d35
p599
I61
sV\u0d25\u0d3e\u0d28
p600
I756
sV\u0d28 
p601
I120
sV \u0d39
p602
I557
sV\u0d46\u0d31
p603
I767
sV\u000a\u0d08 
p604
I956
sV \u0d06
p605
I143
sV \u0d07
p606
I157
sV \u0d05
p607
I71
sV \u0d08
p608
I393
sV \u0d09
p609
I195
sV \u0d0e
p610
I123
sV \u0d0f
p611
I531
sVn
I790
sV \u0d12
p612
I203
sV \u0d13
p613
I710
sV \u0d17
p614
I342
sV \u0d15
p615
I45
sV \u0d1a
p616
I130
sV\u0d1f\u0d4d\u000a
p617
I472
sV\u0d47\u0d28
p618
I974
sV \u0d1f
p619
I669
sV \u0d1c
p620
I241
sV\u0d41 \u0d2a
p621
I526
sV\u0d1a\u0d4d
p622
I80
sV\u0d3f\u0d7d
p623
I77
sV\u0d41\u0d02
p624
I47
sV\u0d3f\u0d7b
p625
I759
sV\u0d1f\u0d19
p626
I607
sV\u0d24\u0d3f\u0d32
p627
I339
sV\u0d1a\u0d46
p628
I224
sV\u0d32\u0d3f\u0d2f
p629
I850
sV\u0d1a\u0d41
p630
I235
sV \u0d24\u0d41
p631
I613
sV\u0d23\u0d4d 
p632
I179
sV\u0d2e\u0d41\u0d33
p633
I971
sV\u0d24\u0d3f\u0d28
p634
I139
sV\u0d41\u0d15
p635
I106
sV\u0d24\u0d3f\u0d2f
p636
I327
sV\u0d40\u0d2f
p637
I795
sV \u0d05\u0d28
p638
I653
sV\u0d41\u0d1f
p639
I124
sV\u0d41 \u0d35
p640
I646
sV\u0d1f\u0d3f
p641
I136
sV\u0d1f\u0d3e
p642
I294
sV\u0d41\u0d23
p643
I283
sV\u0d28\u0d3f\u0d35
p644
I706
sV\u0d28\u0d3f\u0d32
p645
I581
sV\u0d41\u0d24
p646
I184
sV\u0d28\u0d3f\u0d30
p647
I803
sV\u0d41\u0d26
p648
I731
sV\u0d41\u0d28
p649
I54
sV\u0d2b
I234
sV\u0d41\u0d2a
p650
I519
sV\u0d41\u0d23\u0d4d
p651
I319
sV\u0d41\u0d2e
p652
I217
sV\u0d41\u0d31
p653
I362
sV\u0d41\u0d30
p654
I573
sV\u0d41\u0d33
p655
I187
sV\u0d1f\u0d41\u0d24
p656
I427
sV\u0d41\u0d35
p657
I292
sV\u0d2f\u0d3e\u0d2f
p658
I516
sV\u0d1f\u0d28
p659
I743
sV\u0d2c\u0d3e
p660
I738
sV\u0d2f\u0d3e\u0d23
p661
I444
sV\u0d1f\u0d24
p662
I458
sV\u0d19\u0d7e 
p663
I335
sV \u0d05\u0d26
p664
I696
sV\u0d28\u0d3f\u0d28
p665
I412
sV\u0d1f\u0d41\u0d28
p666
I465
sV\u0d4d\u0d1a\u0d3f
p667
I419
sV\u0d24\u0d3f\u0d7d
p668
I256
sV\u0d3f\u0d37
p669
I728
sV\u0d3f\u0d36
p670
I589
sV\u0d3f\u0d35
p671
I236
sV\u0d2c\u0d4d
p672
I504
sV\u0d3f\u0d32
p673
I67
sV\u0d3f\u0d31
p674
I502
sV\u0d3f\u0d30
p675
I112
sV\u0d3f\u0d2f
p676
I66
sV\u0d3f\u0d2e
p677
I523
sV\u0d1f\u0d4d
p678
I62
sV\u0d37\u0d4d\u0d2f
p679
I908
sV\u0d3f\u0d2a
p680
I280
sV\u0d3f\u0d28
p681
I60
sV\u0d3f\u0d27
p682
I800
sV\u0d1f\u0d46
p683
I127
sV\u0d3f\u0d24
p684
I171
sV\u0d07\u0d24\u0d4d
p685
I812
sV\u0d1f\u0d41
p686
I104
sV\u0d3f\u0d1f
p687
I221
sV\u0d4d\u0d28\u0d3e
p688
I456
sV\u0d4d\u200c 
p689
I750
sV\u0d15\u0d3e\u0d7b
p690
I853
sV\u0d37\u0d4d\u0d1f
p691
I869
sV \u0d12\u0d30
p692
I258
sV \u0d24\u0d28
p693
I775
sVi
I689
sV\u0d28\u0d41\u0d02
p694
I338
sV\u0d06\u0d26\u0d4d
p695
I955
sV \u0d24\u0d3f
p696
I883
sV\u0d3f\u0d28\u0d4d
p697
I107
sV\u0d1a\u0d3e
p698
I572
sV\u0d1a\u0d3f
p699
I214
sV\u0d7b
I94
sV\u0d41\u0d24\u0d4d
p700
I357
sV\u0d7c\u0d28\u0d4d
p701
I667
sV\u0d37\u0d4d
p702
I288
sV\u0d32\u0d15
p703
I668
sV\u0d02
I16
sV\u0d7d \u0d2e
p704
I936
sV\u0d2e\u0d3e\u0d28
p705
I796
sV\u0d3f\u0d32\u0d3e
p706
I591
sV \u0d2e\u0d31
p707
I944
sV\u0d25\u0d3f
p708
I859
sV\u0d12
I168
sV\u0d7d 
p709
I51
sV\u0d32\u0d02
p710
I972
sV \u0d05\u0d35
p711
I351
sV\u0d38\u0d4d\u0d15
p712
I781
sV\u0d3e\u0d7b 
p713
I374
sV\u0d30\u0d46 
p714
I639
sV \u0d2a\u0d30
p715
I561
sV\u0d31\u0d46 
p716
I162
sV\u0d32\u0d3e
p717
I210
sV\u0d32\u0d3f
p718
I219
sV\u0d7c\u0d15\u0d4d
p719
I588
sV\u0d1a\u0d3f\u0d30
p720
I880
sV\u0d32\u0d24
p721
I627
sV\u0d32
I19
sV\u0d2a\u0d46\u0d1f
p722
I215
sV\u0d3e\u0d31
p723
I395
sV\u0d4d\u0d1a\u0d24
p724
I910
sV\u0d32\u0d2f
p725
I493
sV\u0d23\u0d4d\u0d1f
p726
I119
sV\u0d42
I92
sV\u0d19\u0d4d\u0d15
p727
I386
sV\u0d3e\u0d7d 
p728
I616
sV\u0d19\u0d4d\u0d19
p729
I97
sV\u0d27\u0d3e\u0d28
p730
I632
sV\u0d32\u0d46
p731
I197
sV\u0d32\u0d47
p732
I563
sV\u0d32\u0d41
p733
I213
sV\u0d32\u0d24\u0d4d
p734
I705
sV\u0d32\u0d4d
p735
I207
sV\u0d32\u0d4b
p736
I540
sV\u0d3e\u0d28
p737
I137
sV\u0d3f\u0d32\u0d4d
p738
I497
sV\u0d46\u0d1f\u0d41
p739
I289
sV\u0d3f\u0d32\u0d46
p740
I261
sV\u0d46\u0d1f\u0d4d
p741
I408
sV\u0d35\u0d28\u0d4d
p742
I969
sV\u0d15\u0d3f\u0d2f
p743
I977
sV\u0d3f\u0d32\u0d41
p744
I295
sV\u0d15\u0d3f\u0d32
p745
I749
sV\u0d1f\u0d46 
p746
I151
sV\u0d2f\u0d3f 
p747
I202
sV\u0d3f\u0d32\u0d47
p748
I787
sV\u0d4d\u0d15\u0d2a
p749
I862
sV\u0d3e\u0d30\u0d3f
p750
I928
sV\u0d15\u0d4d\u0d15
p751
I31
sV\u0d2f\u0d7b 
p752
I875
sV\u0d1c\u0d40
p753
I893
sV\u0d30\u0d15
p754
I430
sV\u0d3f\u0d15\u0d33
p755
I585
sV\u000a\u0d15
p756
I440
sV\u0d3e\u0d2f
p757
I64
sV\u0d02\u000a
p758
I358
sV\u0d30\u0d02
p759
I293
sV\u000a\u0d0e
p760
I604
sV\u0d7b 
p761
I138
sV\u0d23\u0d3f
p762
I409
sV\u0d1e\u0d4d
p763
I303
sV\u0d46 \u0d35
p764
I477
sV\u000a\u0d05
p765
I384
sV\u000a\u0d07
p766
I420
sV\u0d30\u0d35\u0d7c
p767
I915
sV\u0d1f\u0d7c
p768
I983
sV\u0d4d\u0d38\u0d3f
p769
I992
sV\u0d15\u0d4d\u0d37
p770
I260
sV\u0d1c\u0d4d
p771
I506
sV\u0d02 
p772
I22
sV\u0d15\u0d4d\u0d30
p773
I602
sV\u0d30\u0d35
p774
I391
sV\u0d31\u0d4d
p775
I87
sV\u0d30\u0d38
p776
I570
sV\u0d30\u0d3e
p777
I146
sV\u0d30\u0d3f
p778
I93
sV\u0d3e\u0d31\u0d4d
p779
I952
sV\u0d30\u0d23
p780
I251
sV\u000a\u0d2e
p781
I528
sV\u0d30\u0d26
p782
I703
sV\u0d05\u0d26\u0d4d
p783
I611
sV\u0d30\u0d24
p784
I248
sV\u000a\u0d24
p785
I763
sV\u0d30\u0d28
p786
I858
sV\u0d30\u0d2e
p787
I311
sV\u0d30 
p788
I617
sV\u0d7c\u0d2e\u0d4d
p789
I970
sV\u0d3f \u0d15
p790
I665
sV\u0d3e\u0d23\u0d4d
p791
I128
sV\u0d28\u0d3e\u0d7d
p792
I933
sV\u0d4d
I0
sV \u0d30\u0d3e
p793
I652
sV\u0d26\u0d4d\u0d30
p794
I801
sV\u0d28\u0d02 
p795
I474
sV\u0d30\u0d42
p796
I840
sV\u0d26\u0d4d\u0d2f
p797
I446
sV\u0d30\u0d40
p798
I404
sV\u0d30\u0d41
p799
I74
sV\u0d30\u0d46
p800
I449
sV\u0d30\u0d47
p801
I926
sV\u0d26\u0d4d\u0d26
p802
I426
sV\u0d26\u0d4d\u0d27
p803
I425
sV\u0d15\u0d32
p804
I690
sV\u0d15 
p805
I410
sV\u0d30\u0d4d
p806
I576
sV\u0d3f \u0d35
p807
I762
sV \u0d35\u0d47
p808
I949
sV\u0d23\u0d4d
p809
I49
sV\u0d19\u0d33\u0d41
p810
I492
sV\u0d4a\u0d23
p811
I805
sV\u0d3f \u0d38
p812
I826
sV\u0d05\u0d1f
p813
I925
sVo
I798
sV\u0d2f\u0d2a\u0d4d
p814
I680
sV\u0d34\u0d4d
p815
I973
sV\u0d3e\u0d28\u0d41
p816
I986
sV\u0d3f\u0d15\u0d4d
p817
I90
sV\u0d3e\u0d28\u0d4d
p818
I784
sV\u0d31\u0d4d 
p819
I447
sV\u0d3f \u0d2e
p820
I948
sV\u0d2a\u0d2f\u0d4b
p821
I793
sV\u0d7d
I43
sV\u0d3f \u0d2a
p822
I645
sV\u0d57
I877
sV\u0d2f\u0d4b\u0d17
p823
I596
sV\u000a
I32
sV\u0d41\u0d15\u0d4d
p824
I578
sV\u0d15\u0d41\u0d02
p825
I739
sV\u0d2f\u0d02 
p826
I479
sV\u0d4b\u0d33
p827
I755
sV\u0d4b\u0d32
p828
I817
sV\u0d2f \u0d2a
p829
I982
sV\u0d05
I57
sV\u0d43\u0d24
p830
I679
sV\u0d1c
I108
sV\u0d23\u0d2e
p831
I965
sV\u0d24\u0d4d
p832
I17
sV\u0d24\u0d4b
p833
I670
sV\u0d24\u0d46
p834
I246
sV\u0d30\u0d2e\u0d3e
p835
I654
sV\u0d2c
I115
sV\u0d24\u0d40
p836
I813
sV\u0d24\u0d41
p837
I134
sV\u0d2f\u0d19\u0d4d
p838
I779
sV\u0d4b\u0d17
p839
I421
sV\u0d4b\u0d15
p840
I547
sV\u0d47 
p841
I771
sV\u0d19\u0d33
p842
I190
sV\u0d4d\u0d25\u0d3e
p843
I517
sV \u0d38
p844
I59
sV\u0d3e\u0d2f\u0d41
p845
I990
sV\u0d41\u0d15\u0d7e
p846
I505
sV\u0d24\u0d2e
p847
I536
sV\u0d24\u0d2f
p848
I953
sV\u0d3e\u0d2f\u0d3f
p849
I113
sV\u0d19\u0d4d
p850
I75
sV\u0d46\u0d15
p851
I707
sV\u0d24\u0d28
p852
I346
sV\u0d09\u0d2a
p853
I571
sV\u0d40\u0d15\u0d30
p854
I809
sV\u0d24\u0d24
p855
I849
sV\u0d3f\u0d28\u0d3f
p856
I951
sV\u0d39\u0d24
p857
I879
sV\u0d4d\u0d28 
p858
I145
sV\u0d46\u0d1f
p859
I163
sV\u0d24\u0d3e
p860
I181
sV\u0d24\u0d3f
p861
I35
sV\u0d4d\u0d1a 
p862
I638
sV\u0d39\u0d3f
p863
I655
sV\u0d39\u0d3e
p864
I717
sV \u0d1c\u0d28
p865
I799
sV\u0d2f\u0d41\u0d28
p866
I564
sV\u0d24\u0d32
p867
I890
sV\u0d4b\u0d7e
p868
I760
sV\u0d24\u0d30
p869
I541
sV\u0d37\u0d02
p870
I867
sV\u0d30\u0d41 
p871
I226
sV\u0d1a\u0d4d 
p872
I494
sV\u0d39\u0d02
p873
I694
sV\u0d41\u0d15\u0d2f
p874
I392
sV\u0d41 \u0d2e
p875
I987
sV\u0d41\u0d15\u0d33
p876
I455
sV\u0d46\u0d24
p877
I819
sV\u0d19\u0d7e
p878
I266
sV\u0d46\u0d28
p879
I369
sV\u0d19\u0d33\u0d3f
p880
I441
sV\u0d24\u0d15
p881
I783
sV\u0d7c
I42
sV\u0d46\u0d2f
p882
I154
sV\u0d24\u0d4d 
p883
I228
sV\u0d12\u0d30
p884
I225
sV\u0d07
I122
sV\u0d3f\u0d02
p885
I892
sV\u0d3e\u0d7b
p886
I312
sV\u0d17
I78
sV\u0d30\u0d41\u0d28
p887
I180
sV\u0d46\u0d19\u0d4d
p888
I822
sV\u0d2a\u0d3f\u0d1a
p889
I844
sV\u0d1f\u0d3f 
p890
I688
sV\u0d37\u0d47
p891
I988
sV\u0d4d\u0d2a\u0d46
p892
I222
sV\u0d17\u0d24
p893
I746
sV\u0d27
I109
sV\u0d4d\u0d2a\u0d4d
p894
I828
sV\u0d24\u0d4d\u000a
p895
I290
sV \u0d1a\u0d46
p896
I270
sV\u0d4d\u0d2a\u0d4b
p897
I594
sV\u0d47\u0d39\u0d02
p898
I876
sV\u0d2e\u0d40
p899
I810
sV\u0d1a\u0d46\u0d2f
p900
I308
sV\u0d24\u0d3f\u0d15
p901
I551
sV\u0d37
I85
sV \u0d2b
p902
I538
sV\u0d17\u0d3f
p903
I535
sV\u0d4d\u0d2f 
p904
I748
sV\u0d2e\u0d42
p905
I622
sV\u0d4d\u0d2e\u0d3f
p906
I994
sV\u0d37\u0d23
p907
I821
sV\u0d47
I38
sV\u0d17\u0d4d
p908
I273
sV\u0d28\u0d3f\u0d15
p909
I985
sV\u0d24\u0d41\u0d15
p910
I886
sV \u0d1a\u0d3f
p911
I544
sV\u0d2e\u0d46
p912
I527
sV\u0d1f\u0d15\u0d4d
p913
I829
sV\u0d37\u0d3f
p914
I520
sV\u000a\u0d38
p915
I548
sV\u0d4d\u0d2a\u0d3f
p916
I356
sV\u0d4d\u0d2f\u0d3e
p917
I332
sV\u0d4d \u0d06
p918
I757
sVe
I566
sV\u0d05\u0d28
p919
I580
sV\u0d02  
p920
I888
sV\u0d05\u0d24
p921
I466
sV\u0d05\u0d26
p922
I603
sV\u0d15\u0d2a\u0d4d
p923
I721
sV \u0d31
p924
I524
sV\u0d23\u0d02
p925
I558
sV\u0d05\u0d35
p926
I302
sV\u0d4a\u0d23\u0d4d
p927
I823
sV\u0d33 
p928
I220
sV\u0d28\u0d4d 
p929
I212
s.