(dp1
V\u0a42\u0a70 
p2
I120
sV\u0a71\u0a15
p3
I143
sV\u0a3f\u0a1a 
p4
I594
sV\u0a71\u0a17
p5
I839
sV\u0a71\u0a16
p6
I226
sV\u0a47\u0a1f
p7
I891
sV\u0a4b\u0a02 
p8
I114
sV\u0a71\u0a1a
p9
I69
sV\u0a71\u0a1f
p10
I649
sV\u0a47\u0a02
p11
I363
sV\u0a1c\u0a3c\u0a3f
p12
I991
sV \u0a05\u0a70
p13
I557
sV\u0a1c
I23
sV\u0a1c\u0a3c\u0a3e
p14
I817
sV 
I0
sV\u0a47\u0a35
p15
I724
sV\u0a71\u0a32
p16
I429
sV\u0a47\u0a32
p17
I719
sV\u0a47\u0a30
p18
I630
sV\u0a71\u0a38
p19
I716
sV\u0a2a\u0a42\u0a30
p20
I742
sV\u0a2c
I39
sV\u0a47\u0a38
p21
I291
sV\u0a71\u0a21
p22
I698
sV\u0a41\u0a71\u0a16
p23
I784
sV\u0a47\u0a24
p24
I613
sV\u0a71\u0a25
p25
I815
sV\u0a71\u0a24
p26
I205
sV\u0a71\u0a27
p27
I526
sV\u0a30\u0a39\u0a3f
p28
I945
sV\u0a3c
I32
sV\u0a15\u0a70\u0a2e
p29
I980
sV  
p30
I118
sV\u0a30\u0a28 
p31
I320
sV \u0a05\u0a28
p32
I791
sV \u0a05\u0a24
p33
I99
sV\u0a30\u0a40\u0a06
p34
I985
sV \u0a05\u0a27
p35
I929
sV\u0a4c
I179
sV\u0a3e \u0a35
p36
I407
sV\u0a06\u0a30\u0a3e
p37
I771
sV\u0a3e\u0964
p38
I554
sV\u0a5c
I180
sV\u0a28\u0a47 
p39
I164
sV\u0a30\u0a25
p40
I772
sV\u0a39\u0a40 
p41
I368
sV\u0a42 
p42
I332
sV\u0a18 
p43
I853
sV\u0a2e \u0a26
p44
I822
sV\u0a28\u0a3e 
p45
I344
sV \u0a24\u0a71
p46
I927
sV\u0a07\u0a71\u0a15
p47
I191
sV\u0a2d\u0a3e
p48
I225
sV\u0a5c 
p49
I888
sV\u0a35 
p50
I575
sV \u0a30\u0a71
p51
I999
sV\u0a30\u0a17
p52
I789
sV\u0a07
I45
sV\u0a30\u0a15
p53
I316
sV\u0a30\u0a1a
p54
I843
sV\u0a38 
p55
I84
sV\u0a28\u0a40 
p56
I436
sV\u0a30\u0a1f
p57
I996
sV\u0a30\u0a1c
p58
I581
sV\u0a08 \u0a38
p59
I696
sV\u0a4d\u0a30
p60
I102
sV\u0a17
I38
sV \u0a2e\u0a70
p61
I773
sV\u0a3f\u0a06\u0a28
p62
I968
sV\u0a40\u0a28 
p63
I947
sV\u0a4d\u0a39
p64
I260
sV\u0a2e\u0a3e\u0a02
p65
I737
sV\u0a27
I116
sV\u0a24\u0a40 
p66
I196
sV\u0a09\u0a71
p67
I470
sV\u0a30\u0a38
p68
I268
sV\u0a30\u0a39
p69
I466
sV\u0a30\u0a3e
p70
I85
sV\u0a30\u0a3f
p71
I192
sV\u0a2e\u0a3e\u0a30
p72
I810
sV\u0a3f\u0a06\u0a02
p73
I462
sV \u0a30\u0a42
p74
I833
sV\u0a30\u0a26
p75
I283
sV\u0a30\u0a24
p76
I210
sV\u0a2e\u0a3e\u0a28
p77
I758
sV\u0a30\u0a28
p78
I223
sV\u0a35\u0a71\u0a16
p79
I988
sV\u0a41\u0a70\u0a26
p80
I362
sV\u0a30\u0a2c
p81
I860
sV\u0a24 \u0a26
p82
I624
sV\u0964\u000a\u0a35
p83
I690
sV\u0a30 \u0a2a
p84
I865
sV\u0a47
I6
sV\u0964\u000a\u0a38
p85
I520
sV \u0a30\u0a39
p86
I602
sV\u0a09\u0a23 
p87
I936
sV \u0a30\u0a3f
p88
I657
sV \u0a30\u0a3e
p89
I373
sV\u0a30\u0a42
p90
I309
sV\u0a70\u0a2a
p91
I987
sV\u0a30\u0a40
p92
I112
sV\u0a30\u0a47
p93
I221
sV\u0964\u000a\u0a26
p94
I533
sV\u0a30\u0a4b
p95
I342
sV\u0a30\u0a48
p96
I867
sV\u0964\u000a\u0a2a
p97
I632
sV\u0a24 \u0a39
p98
I565
sV\u0a24 \u0a38
p99
I726
sV\u0a09\u0a39
p100
I290
sV\u0a09\u0a38
p101
I188
sV\u0a30\u0a70
p102
I777
sV\u0a30\u0a71
p103
I746
sV\u0964\u000a\u0a15
p104
I738
sV\u0a23\u0a40
p105
I350
sV\u0a23\u0a47
p106
I454
sV\u0964\u000a\u0a1c
p107
I756
sV\u0a17\u0a3e
p108
I400
sV\u0a24 \u0a15
p109
I446
sV\u0964\u000a\u0a05
p110
I798
sV\u0964\u000a\u0a07
p111
I218
sV\u0964\u000a\u0a09
p112
I321
sV\u0a09\u0a23
p113
I785
sV\u0a16\u0a3c
p114
I890
sV\u0a16\u0a3e
p115
I596
sV\u0a16\u0a3f
p116
I524
sV\u0a02
I16
sV\u0a15\u0a30\u0a28
p117
I424
sV\u0a15\u0a30\u0a26
p118
I525
sV \u0a09\u0a71
p119
I504
sV\u0a28 \u0a05
p120
I643
sV\u0a32\u0a47 
p121
I352
sV\u0a23\u0a40 
p122
I438
sV \u0a24\u0a4c
p123
I801
sV\u0a28 \u0a1c
p124
I834
sV\u0a3e 
p125
I19
sV \u0a17\u0a3f
p126
I324
sV\u0a28 \u0a15
p127
I579
sV\u0a48 \u0a05
p128
I805
sV\u0a28 \u0a28
p129
I790
sV\u0a1f\u0a47
p130
I919
sV\u0a3e\u0a32\u0a3e
p131
I699
sV\u0a28 \u0a26
p132
I337
sV \u0a17\u0a08
p133
I703
sV\u0a3c\u0a3e
p134
I199
sV\u0a28 \u0a39
p135
I933
sV\u0a32
I14
sV\u0a2a\u0a39\u0a3f
p136
I544
sV\u0a32 \u0a15
p137
I642
sV\u0a28 \u0a35
p138
I522
sV\u0a2c\u0a39\u0a41
p139
I787
sV \u0a09\u0a38
p140
I270
sV \u0a09\u0a39
p141
I426
sV\u0a21\u0a3f
p142
I909
sV\u0a42
I46
sV\u0a70\u0a17
p143
I247
sV\u0a26\u0a3e 
p144
I71
sV\u0a09\u0a38 
p145
I335
sV\u0a09\u0a28
p146
I979
sV\u0a48\u0a38
p147
I826
sV\u0a70\u0a1c
p148
I487
sV\u0a15\u0a70
p149
I582
sV\u0a27\u0a3e\u0a30
p150
I750
sV\u0a4d\u0a30\u0a3e
p151
I644
sV\u0a3e\u0a32\u0a40
p152
I668
sV\u0a3e\u0a32\u0a47
p153
I948
sV\u0a40\u0a02 
p154
I421
sV\u0a15\u0a3f 
p155
I333
sV \u0a17\u0a41
p156
I755
sV\u0a70\u0a38
p157
I728
sV\u0a06\u0964\u000a
p158
I452
sV\u0a38\u0a2e\u0a3e
p159
I812
sV\u0a48\u0964\u000a
p160
I108
sV\u0a70\u0a21
p161
I420
sV\u0a70\u0a26
p162
I158
sV\u0a70\u0a27
p163
I825
sV\u0a70\u0a24
p164
I568
sV\u0a0a
I678
sV\u0a70\u0a28
p165
I443
sV\u0a2c\u0a40 
p166
I778
sV\u0a70\u0a2e
p167
I597
sV\u0a70\u0a2c
p168
I646
sV\u000a\u0a09
p169
I303
sV\u000a\u0a1c
p170
I689
sV\u0a15\u0a3e\u0a02
p171
I665
sV\u000a\u0a15
p172
I671
sV\u0a3f\u0a71
p173
I51
sV\u0a3f\u0a70
p174
I161
sV\u0a28\u0a2e
p175
I870
sV\u0a06\u0a02 
p176
I121
sV\u0a3e\u0a28 
p177
I265
sV\u0a27 
p178
I493
sV\u000a\u0a05
p179
I735
sV\u000a\u0a07
p180
I202
sV\u0a1d
I495
sV\u0a30\u0a26\u0a3e
p181
I774
sV\u0a1f\u0a3f
p182
I753
sV\u0a1f\u0a3e
p183
I552
sV\u000a\u0a38
p184
I472
sV\u0a2c\u0a23
p185
I478
sV\u0a02 \u0a32
p186
I692
sV\u0a30\u0a3e 
p187
I306
sV\u0a2d
I104
sV\u0a48\u0a28
p188
I863
sV\u0a38 \u0a35
p189
I614
sV\u0a1f\u0a30
p190
I336
sV\u0a15\u0a3e\u0a30
p191
I230
sV\u000a\u0a2e
p192
I847
sV\u0a38 \u0a28
p193
I402
sV\u0a2c\u0a32
p194
I906
sV \u0a2b\u0a3c
p195
I903
sV\u0a2c\u0a30
p196
I458
sV\u0a2c\u0a3e
p197
I189
sV\u0a2c\u0a3f
p198
I700
sV\u000a\u0a26
p199
I501
sV\u0a05\u0a71
p200
I961
sV\u0a38 \u0a26
p201
I308
sV\u0a2c\u0a39
p202
I683
sV\u0a2c\u0a26
p203
I831
sV\u0a17\u0a47
p204
I993
sV\u0a3f\u0a39
p205
I318
sV\u0a3f\u0a38
p206
I142
sV\u0a3f\u0a35
p207
I566
sV\u0a4d
I81
sV\u0a3f\u0a32
p208
I170
sV\u0a3f\u0a30
p209
I244
sV\u0a40\u0a06\u0a02
p210
I152
sV\u0a26\u0a3f\u0a71
p211
I516
sV\u0a4c\u0a30
p212
I432
sV\u0a3f\u0a28
p213
I489
sV\u0a05\u0a26 
p214
I769
sV\u0a3f\u0a24
p215
I214
sV\u0a1f\u0a40
p216
I330
sV\u0a3f\u0a1f
p217
I878
sV\u0a3f\u0a1a
p218
I370
sV\u0a30\u0a26\u0a47
p219
I918
sV\u0a05\u0a24
p220
I94
sV\u0a3f\u0a15
p221
I204
sV\u0a05\u0a26
p222
I585
sV\u0a1a 
p223
I62
sV\u0a23 \u0a35
p224
I788
sV\u0a26\u0a30 
p225
I910
sV\u0a38\u0a3c\u0a41
p226
I855
sV\u0a2c\u0a70
p227
I601
sV\u000a\u0a35
p228
I647
sV\u0a3f\u0a06
p229
I79
sV\u0a3c\u0a40 
p230
I913
sV\u0a70\u0a18
p231
I679
sV\u0a05\u0a30
p232
I548
sV\u0a23 \u0a26
p233
I651
sV\u0a4b\u0a23
p234
I828
sV\u0a10
I355
sV\u0a3f\u0a24\u0a3e
p235
I794
sV\u0a35\u0a47
p236
I331
sV\u0a1c\u0a3c 
p237
I559
sV\u0a35\u0a40
p238
I201
sV\u0a20
I558
sV\u0a35\u0a71
p239
I365
sV\u0a15\u0a3e\u0a32
p240
I920
sV\u0a30
I2
sV\u0a2c\u0a47
p241
I907
sV\u0a42\u0a70
p242
I110
sV\u0a3e\u0a08 
p243
I427
sV\u0a47 
p244
I12
sV\u000a\u0a28
p245
I960
sV\u0a2c\u0a30 
p246
I912
sV\u0a39\u0a40\u0a02
p247
I549
sV\u0a40
I3
sV\u0a15\u0a47 
p248
I345
sV \u0a26
p249
I18
sV\u000a\u0a2a
p250
I589
sV \u0a24
p251
I66
sV \u0a2a
p252
I47
sV \u0a2b
p253
I236
sV \u0a28
p254
I36
sV \u0a2e
p255
I74
sV \u0a2f
p256
I441
sV \u0a2c
p257
I86
sV \u0a2d
p258
I213
sV \u0a32
p259
I88
sV \u0a30
p260
I97
sV\u0a28\u0a3e\u0a02
p261
I351
sV\u0a5c\u0a40
p262
I792
sV \u0a35
p263
I28
sV\u0a09\u0a71\u0a24
p264
I749
sV \u0a38
p265
I21
sV \u0a39
p266
I27
sV\u0a3f\u0a32\u0a2e
p267
I917
sV\u0a4c\u0a30 
p268
I612
sV\u0a35\u0a3f
p269
I44
sV\u0a35\u0a3e
p270
I100
sV \u0a06
p271
I125
sV \u0a07
p272
I82
sV \u0a05
p273
I49
sV\u0a23\u0a47 
p274
I471
sV \u0a09
p275
I98
sV\u0a42\u0a28
p276
I845
sV\u0a35\u0a30
p277
I286
sV\u0a42\u0a2a
p278
I832
sV\u0a3f\u0a71\u0a1a
p279
I77
sV\u0a70
I25
sV \u0a10
p280
I512
sV \u0a16
p281
I237
sV \u0a17
p282
I101
sV\u0a42\u0a32
p283
I850
sV \u0a15
p284
I30
sV \u0a1a
p285
I206
sV \u0a1b
p286
I715
sV \u0a18
p287
I545
sV \u0a1f
p288
I417
sV \u0a1c
p289
I52
sV\u0a28\u0a3e\u0a2e
p290
I836
sV\u0a71\u0a32 
p291
I916
sV\u0a30 \u0a38
p292
I434
sV\u0a38\u0a28
p293
I252
sV\u0a38\u0a2e
p294
I251
sV\u0a38\u0a2d
p295
I654
sV\u0a23 
p296
I145
sV\u0a38\u0a26
p297
I411
sV\u0a38\u0a24
p298
I360
sV\u0a38\u0a25
p299
I509
sV\u0a3f\u0a06 
p300
I166
sV\u0a2a\u0a23\u0a47
p301
I660
sV\u0a38\u0a3e
p302
I133
sV\u0a38\u0a3f
p303
I181
sV\u0a38\u0a3c
p304
I61
sV\u0a38\u0a32
p305
I666
sV \u0a28\u0a42
p306
I131
sV\u0a1b
I378
sV\u0a38\u0a40 
p307
I325
sV \u0a28\u0a47
p308
I217
sV\u0a4b\u0a38
p309
I711
sV\u0a2c\u0a40
p310
I482
sV \u0a16\u0a47
p311
I745
sV\u0a3e\u0a38\u0a3c
p312
I463
sV \u0a2a\u0a41
p313
I639
sV\u0a2b
I122
sV\u0a30\u0a38\u0a3c
p314
I944
sV\u000a\u0a35\u0a3f
p315
I926
sV\u0a38\u0a47 
p316
I640
sV\u0a3f\u0a38\u0a3c
p317
I383
sV\u0a41\u0a38
p318
I603
sV\u0a30 
p319
I41
sV\u0a38\u0a1f
p320
I422
sV\u0a25\u0a47 
p321
I977
sV\u0a24\u0a71
p322
I857
sV\u000a\u0a09\u0a38
p323
I546
sV\u0a38\u0a15
p324
I326
sV \u0a2f\u0a42
p325
I981
sV\u0a1c\u0a3f\u0a39
p326
I973
sV\u0a4b
I29
sV\u0a30\u0a42 
p327
I835
sV\u0a4b\u0a07
p328
I669
sV\u0a38\u0a70
p329
I255
sV\u0a26\u0a41\u0a06
p330
I729
sV\u0a02\u0a26\u0a3e
p331
I374
sV\u0a24\u0a4b
p332
I167
sV\u0a16 
p333
I414
sV\u0a3e\u0a2c 
p334
I964
sV \u0a28\u0a39
p335
I617
sV \u0a28\u0a3f
p336
I418
sV \u0a28\u0a3e
p337
I148
sV\u0a38\u0a40
p338
I126
sV\u0a38\u0a41
p339
I574
sV\u0a38\u0a2d 
p340
I935
sV\u0a38\u0a47
p341
I445
sV\u0964\u000a\u0a2e
p342
I915
sV\u0a17\u0a4d
p343
I974
sV  \u0a35
p344
I455
sV\u0a47\u0a16
p345
I779
sV\u0a2b\u0a3f
p346
I764
sV\u0a2b\u0a3c
p347
I384
sV\u0a3e\u0a38
p348
I182
sV\u0a3e\u0a39
p349
I279
sV\u0a4b\u0a08
p350
I701
sV\u0a06
I26
sV\u0a3e\u0a30
p351
I59
sV\u0a3e\u0a32
p352
I91
sV\u0a3e\u0a35
p353
I231
sV\u0a15\u0a30 
p354
I539
sV\u0a3e\u0a28
p355
I147
sV\u0a4b\u0a32
p356
I517
sV\u0a3e\u0a2a
p357
I459
sV\u0a4b\u0a30
p358
I382
sV\u0a3e\u0a2c
p359
I328
sV \u0a38\u0a25
p360
I748
sV\u0a3e\u0a2e
p361
I271
sV\u0a16
I80
sV\u0a3e\u0a23
p362
I323
sV\u0a3e\u0a24
p363
I404
sV\u0a3e\u0a26
p364
I371
sV\u0a4b\u0a02
p365
I109
sV\u0a3e\u0a1c
p366
I301
sV\u0a07\u0a71
p367
I173
sV\u0a26
I7
sV\u0a35\u0a30\u0a24
p368
I893
sV\u0a16\u0a47
p369
I490
sV\u0a3c\u0a41\u0a30
p370
I946
sV\u0a3e\u0a15
p371
I433
sV\u0a3e\u0a17
p372
I685
sV\u0a3e\u0a08
p373
I238
sV\u0a3e\u0a09
p374
I529
sV\u0a4b\u0a17
p375
I739
sV\u0a4b\u0a15
p376
I456
sV \u0a38\u0a3f
p377
I277
sV\u0a3e\u0a02
p378
I42
sV\u0a3e\u0a32 
p379
I160
sV\u0a4b\u0a1f
p380
I800
sV\u0a3e\u0a05
p381
I572
sV\u0a3e\u0a07
p382
I281
sV\u0a07\u0a15
p383
I673
sV\u0a2e\u0a3f
p384
I284
sV\u0a35\u0a3e\u0a30
p385
I580
sV\u0a07\u0a06
p386
I357
sV\u0a35\u0a3e\u0a32
p387
I449
sV\u0a39\u0a47 
p388
I990
sV\u0a07\u0a70
p389
I806
sV\u0a1c\u0a3f\u0a38
p390
I515
sV\u0a05\u0a28
p391
I492
sV\u0a35\u0a3e\u0a02
p392
I453
sV \u0a38\u0a30
p393
I667
sV\u0a71\u0a16 
p394
I508
sV\u0a07\u0a39
p395
I274
sV\u0a07\u0a38
p396
I178
sV\u0a38\u0a3e\u0a30
p397
I536
sV\u0a70 
p398
I119
sV\u0a3e\u0964\u000a
p399
I556
sV\u0a3f\u0a16
p400
I588
sV\u0a38\u0a3e\u0a39
p401
I809
sV\u0a30\u0a24 
p402
I625
sV\u0a05\u0a27
p403
I885
sV\u0a23\u0a3e
p404
I302
sV\u0a28\u0a39\u0a40
p405
I633
sV\u0a1a\u0a4b
p406
I804
sV\u0a27\u0a3f
p407
I765
sV\u0a27\u0a3e
p408
I399
sV\u0a30\u0a3e\u0a02
p409
I412
sV\u0a09\u0a38\u0a28
p410
I676
sV\u0a47\u0a1c
p411
I901
sV\u0a30\u0a3e\u0a1c
p412
I586
sV\u0a2d\u0a3e\u0a30
p413
I656
sV\u0a06\u0964
p414
I450
sV\u0a21
I90
sV\u0a2c 
p415
I481
sV\u0a3c\u0a47
p416
I970
sV\u0a2f\u0a4b
p417
I911
sV\u0a17\u0a3f\u0a06
p418
I304
sV\u0a02\u0a15
p419
I995
sV\u0a1c\u0a3e\u0a23
p420
I876
sV\u0a70\u0a17 
p421
I622
sV\u0a2e\u0a41
p422
I311
sV\u0a05
I34
sV\u0a1f 
p423
I224
sV\u0a41
I43
sV\u0a3f\u0a70\u0a26
p424
I503
sV\u0a15 \u0a15
p425
I889
sV \u0a2c\u0a23
p426
I488
sV\u0a38\u0a3f\u0a70
p427
I714
sV\u0a3e\u0a23\u0a40
p428
I923
sV\u0a38\u0a3f\u0a71
p429
I829
sV\u0a02\u0a21
p430
I904
sV\u0a1a \u0a07
p431
I793
sV\u0a3f\u0a06\u0964
p432
I620
sV \u0a2c\u0a3f
p433
I954
sV \u0a2c\u0a3e
p434
I315
sV\u0a0f 
p435
I442
sV \u0a2c\u0a39
p436
I730
sV\u0a38\u0a40\u0964
p437
I267
sV\u0a4b\u0a30 
p438
I824
sV\u0a28\u0a4d\u0a39
p439
I567
sV\u0a2a\u0a41
p440
I477
sV\u0a2a\u0a4d\u0a30
p441
I157
sV\u0a30\u0a35
p442
I550
sV\u0a38\u0a15\u0a26
p443
I869
sV\u0a71
I17
sV\u0a40\u0a06 
p444
I606
sV\u0a1a\u0a3e
p445
I339
sV\u0a1a\u0a3f
p446
I754
sV\u0a27\u0a40
p447
I807
sV \u0a24\u0a30
p448
I950
sV\u0a41\u0a06\u0a30
p449
I763
sV \u0a35\u0a3e
p450
I276
sV \u0a35\u0a3f
p451
I48
sV\u0a32 \u0a26
p452
I598
sV\u0a3f\u0a38 
p453
I519
sV \u0a35\u0a30
p454
I562
sV\u0a25 
p455
I881
sV\u0a32 \u0a35
p456
I720
sV \u0a15\u0a32
p457
I982
sV\u0a32 \u0a39
p458
I627
sV\u0a32 \u0a38
p459
I610
sV\u0a02 \u0a2e
p460
I898
sV\u0a1c\u0a40 
p461
I799
sV \u0a35\u0a1c
p462
I965
sV \u0a2e\u0a48
p463
I781
sV\u0a15 \u0a05
p464
I877
sV\u0a24
I10
sV\u0a47\u0a02 
p465
I511
sV\u0a30\u0a23
p466
I895
sV \u0a2e\u0a41
p467
I408
sV\u0a70\u0a2e 
p468
I994
sV\u0a32 
p469
I75
sV\u0a2a\u0a70\u0a1c
p470
I641
sV \u0a1c\u0a40
p471
I852
sV\u0a08 
p472
I115
sV \u0a1c\u0a4b
p473
I431
sV\u000a\u0a09\u0a39
p474
I820
sV\u0a35\u0a40 
p475
I257
sV\u0a35\u0a47\u0a02
p476
I859
sV \u0a1c\u0a3f
p477
I254
sV \u0a1c\u0a3e
p478
I141
sV \u0a1c\u0a3c
p479
I645
sV \u0a35\u0a71
p480
I419
sV \u0a2e\u0a39
p481
I741
sV\u0a06\u0a28
p482
I830
sV\u0a1a \u0a2a
p483
I687
sV \u0a2e\u0a3f
p484
I528
sV \u0a2e\u0a3e
p485
I393
sV\u0a26\u0a47\u0a38
p486
I821
sV\u0a28 
p487
I53
sV\u0a32\u0a3e 
p488
I387
sV \u0a1c\u0a28
p489
I884
sV\u0a15\u0a24
p490
I590
sV\u0a21\u0a47
p491
I942
sV\u0a30\u0a2e
p492
I369
sV\u0a70 \u0a38
p493
I900
sV\u0a3f\u0a39\u0a3e
p494
I473
sV\u0a25\u0a3e
p495
I425
sV\u0a32\u0a3f\u0a06
p496
I718
sV\u0a24\u0a3e\u0a02
p497
I500
sV\u0a71\u0a1a 
p498
I78
sV \u0a35\u0a40
p499
I287
sV\u0a2e\u0a40 
p500
I811
sV\u0a40\u0a02
p501
I388
sV\u0a30 \u0a05
p502
I797
sV \u0a07\u0a71
p503
I195
sV\u0a0f
I249
sV\u0a1c\u0a3e\u0a2c
p504
I767
sV\u0a06\u0a02
p505
I111
sV\u0a26\u0a40\u0a06
p506
I390
sV\u0a2d\u0a3f
p507
I899
sV\u0a07\u0a06 
p508
I475
sV \u0a26\u0a4b
p509
I780
sV\u0a1f
I57
sV\u0a38\u0a3c 
p510
I396
sV\u0a06\u0a30
p511
I359
sV\u0a32\u0a40 
p512
I317
sV \u0a15\u0a3e
p513
I305
sV \u0a15\u0a3f
p514
I183
sV\u0a70\u0a26\u0a3e
p515
I583
sV \u0a15\u0a30
p516
I153
sV\u0a2f
I243
sV\u0a26\u0a40
p517
I58
sV\u0a26\u0a41
p518
I460
sV\u0a26\u0a42
p519
I653
sV\u0a38\u0a3e\u0a32
p520
I722
sV\u0a39\u0a28\u0a3e
p521
I695
sV\u0a06\u0a26
p522
I782
sV\u0a26\u0a47
p523
I50
sV\u0a2f\u0a42
p524
I795
sV\u0a06\u0a2a
p525
I299
sV\u0a26\u0a4b
p526
I439
sV\u0a3f
I4
sV\u0a1c\u0a3e\u0a02
p527
I215
sV\u0a26\u0a30
p528
I312
sV\u0a40\u0a06
p529
I127
sV\u0a05\u0a24\u0a47
p530
I96
sV\u0a40\u0a05
p531
I541
sV\u0a26\u0a3e
p532
I55
sV\u0a26\u0a3f
p533
I220
sV\u0a15 \u0a26
p534
I842
sV\u0a2e\u0a41\u0a71
p535
I882
sV \u0a07\u0a38
p536
I327
sV\u0a40\u0a15
p537
I468
sV\u0a70\u0a1c\u0a3e
p538
I744
sV\u0a15\u0a40\u0a24
p539
I185
sV \u0a15\u0a47
p540
I447
sV \u0a15\u0a40
p541
I174
sV \u0a15\u0a41
p542
I570
sV\u0a40\u0a1c
p543
I880
sV\u0a3f\u0a70\u0a17
p544
I818
sV\u0a3e\u0a35\u0a3e
p545
I510
sV\u0a15\u0a3f\u0a38
p546
I684
sV\u0a40\u0a24
p547
I150
sV\u0a40\u0a28
p548
I483
sV\u0a24\u0a15
p549
I713
sV \u0a15\u0a70
p550
I637
sV\u0a24 \u0a35
p551
I886
sV \u0a07\u0a39
p552
I486
sV\u0a40\u0a32
p553
I725
sV\u0a40\u0a30
p554
I663
sV\u0a40\u0a35
p555
I506
sV\u0a48 
p556
I162
sV\u0a07\u0a28
p557
I921
sV\u0a30 \u0a39
p558
I563
sV \u0a39\u0a48
p559
I68
sV\u0a21 
p560
I293
sV \u0a39\u0a4b
p561
I169
sV \u0a39\u0a40
p562
I547
sV \u0a39\u0a41
p563
I354
sV \u0a15\u0a4b
p564
I608
sV\u0a3f\u0a32\u0a3e
p565
I672
sV\u0a1c\u0a47
p566
I712
sV\u0a1c\u0a40
p567
I395
sV\u0a39\u0a71
p568
I983
sV\u0a1a
I31
sV\u0a1c\u0a4b
p569
I300
sV\u0a28\u0964
p570
I233
sV\u0a39\u0a48
p571
I67
sV\u0a39\u0a4b
p572
I159
sV\u0a09\u0a02
p573
I677
sV\u0a05\u0a15
p574
I873
sV\u0a39\u0a41
p575
I227
sV\u0a39\u0a40
p576
I203
sV\u0a2a
I24
sV\u0a39\u0a47
p577
I638
sV\u0a24\u0a30 
p578
I537
sV\u0a35\u0a3f\u0a1a
p579
I391
sV\u0a30\u0a42\u0a2a
p580
I875
sV \u0a32\u0a48
p581
I992
sV\u0a39\u0a3e\u0a02
p582
I379
sV\u0a1d 
p583
I966
sV\u0a39\u0a28
p584
I146
sV \u0a32\u0a3f
p585
I543
sV\u0a28\u0a4d
p586
I553
sV\u0a24 
p587
I89
sV\u0a2a\u0a71
p588
I819
sV\u0a1f\u0a30 
p589
I707
sV\u0a35\u0a3f\u0a71
p590
I76
sV\u0a39\u0a3f
p591
I140
sV\u0a39\u0a3e
p592
I123
sV\u0a3e\u0a05\u0a26
p593
I757
sV\u0a39\u0a30
p594
I619
sV\u0a32\u0a2e
p595
I675
sV\u0a30\u0a24\u0a40
p596
I618
sV \u0a39\u0a28
p597
I187
sV\u0a28\u0a41
p598
I629
sV\u0a39\u0a4b\u0a07
p599
I743
sV\u0a07\u0a39 
p600
I314
sV\u0a1c\u0a3e
p601
I103
sV\u0a1c\u0a3f
p602
I198
sV\u0a1c\u0a3c
p603
I151
sV \u0a39\u0a3e
p604
I710
sV \u0a39\u0a3f
p605
I803
sV\u0a26\u0a47 
p606
I54
sV \u0a32\u0a08
p607
I263
sV\u0a1c\u0a28
p608
I502
sV\u0a3f\u0a71\u0a24
p609
I405
sV \u0a24\u0a4b
p610
I184
sV\u0a3f\u0a15\u0a3e
p611
I670
sV\u0a3c\u0a30
p612
I694
sV\u0a35\u0a1c
p613
I848
sV \u0a24\u0a47
p614
I229
sV\u0a3c\u0a3f
p615
I375
sV\u0a3e\u0a02\u0a26
p616
I288
sV\u0a40\u0a24\u0a3e
p617
I334
sV\u0a3c\u0a24
p618
I932
sV \u0a21
p619
I435
sV\u0a15
I9
sV\u0a4b\u0a08 
p620
I902
sV\u0a02 \u0a35
p621
I211
sV\u0a47\u0a21
p622
I959
sV\u0a02\u0a1f
p623
I914
sV\u0a2c\u0a3e\u0a30
p624
I951
sV\u0a3c\u0a28
p625
I457
sV \u0a27
p626
I621
sV\u0a02\u0a26
p627
I194
sV\u0a3e\u0a30\u0a3e
p628
I573
sV\u0a25
I149
sV\u0a3e\u0a38 
p629
I681
sV\u0a23\u0a3e 
p630
I514
sV\u0a17 
p631
I261
sV\u0a2c\u0a3e\u0a05
p632
I740
sV\u0a3c\u0a1f
p633
I939
sV\u0a3e\u0a07\u0a06
p634
I762
sV\u0a2d\u0a3e\u0a35
p635
I938
sV\u0a71\u0a15 
p636
I165
sV\u0a41\u0a30\u0a42
p637
I682
sV\u0a15 \u0a39
p638
I905
sV\u0a35
I13
sV\u0a3e\u0a30\u0a28
p639
I971
sV\u0a15\u0a4b
p640
I416
sV\u0a02 \u0a38
p641
I361
sV\u0a3e\u0a30\u0a24
p642
I571
sV\u0a15\u0a47
p643
I253
sV\u0a15\u0a41
p644
I430
sV\u0a15\u0a40
p645
I137
sV\u0a48\u0964
p646
I106
sV\u0a71\u0a27 
p647
I808
sV\u0a15\u0a3e 
p648
I691
sV\u0a15\u0a3f
p649
I139
sV\u0a15\u0a3e
p650
I95
sV\u0a38\u0a28\u0a47
p651
I796
sV\u0a15\u0a38
p652
I497
sV\u0a70\u0a26\u0a40
p653
I688
sV\u0a4b\u0a07\u0a06
p654
I732
sV\u0a15\u0a30
p655
I130
sV\u0a15\u0a32
p656
I467
sV\u0a40\u0a2e
p657
I892
sV\u0a02 
p658
I22
sV\u0a3e\u0a30\u0a47
p659
I693
sV\u0a15\u0a26
p660
I635
sV\u0a2a 
p661
I413
sV\u0a3e\u0a30\u0a40
p662
I423
sV\u0a15\u0a1f
p663
I849
sV\u0a1a\u0a3e\u0a30
p664
I591
sV\u0a70\u0a26\u0a47
p665
I862
sV\u0a3f\u0a24 
p666
I346
sV\u0a3f\u0a70\u0a18
p667
I874
sV\u0a40\u0a24\u0a40
p668
I401
sV \u0a24\u0a3e
p669
I704
sV\u0a32\u0a47
p670
I239
sV\u0a3e\u0a39\u0a3f
p671
I866
sV\u0a3c\u0a40
p672
I465
sV\u0a3c\u0a41
p673
I717
sV\u0a32\u0a08 
p674
I264
sV\u0a70\u0a18 
p675
I871
sV\u0a47  
p676
I609
sV\u0a39\u0a3f\u0a30
p677
I972
sV\u0a02 \u0a24
p678
I561
sV\u0a24\u0a2e
p679
I941
sV\u0a4b\u0a1c
p680
I894
sV\u0a30 \u0a15
p681
I485
sV\u0a06\u0a2a\u0a23
p682
I356
sV\u0a08
I87
sV\u0a39\u0a48 
p683
I175
sV\u0a05\u0a70
p684
I476
sV\u0a38\u0a28\u0964
p685
I975
sV \u0a26\u0a41
p686
I555
sV \u0a26\u0a40
p687
I92
sV\u0a25\u0a3f
p688
I967
sV\u0a4b 
p689
I193
sV \u0a26\u0a47
p690
I70
sV\u0a18
I285
sV \u0a2d\u0a3e
p691
I366
sV\u0a3e \u0a28
p692
I392
sV\u0a32\u0a08
p693
I258
sV\u0a3e\u0a2e 
p694
I706
sV\u0a71\u0a24\u0a47
p695
I776
sV\u0a30 \u0a35
p696
I386
sV\u0a41\u0a30
p697
I273
sV\u0a28
I8
sV\u0a32\u0a3e
p698
I128
sV\u0a32\u0a3f
p699
I289
sV\u0a02 \u0a2c
p700
I518
sV\u0a4d\u0a30\u0a3f
p701
I616
sV\u0a16\u0a3f\u0a06
p702
I770
sV\u0a30 \u0a26
p703
I269
sV\u0a30 \u0a24
p704
I484
sV\u0a28\u0a42
p705
I113
sV\u0a38
I5
sV\u0a28\u0a40
p706
I232
sV\u0a30 \u0a28
p707
I607
sV\u0a28\u0a47
p708
I138
sV\u0a38\u0a26\u0a40
p709
I984
sV\u0a32\u0a4b\u0a15
p710
I631
sV\u0a28\u0a39
p711
I587
sV\u0a28\u0a3e
p712
I83
sV\u0a28\u0a3f
p713
I245
sV\u0a02 \u0a39
p714
I377
sV\u0a48
I35
sV\u0a2d 
p715
I760
sV\u0a28\u0a35
p716
I851
sV\u0a39
I11
sV\u0a30\u0a40 
p717
I176
sV\u0a32\u0a40
p718
I197
sV\u0a24\u0a3e 
p719
I172
sV\u0a71\u0a24\u0a30
p720
I998
sV\u0a02 \u0a26
p721
I144
sV\u0a71\u0a24\u0a3e
p722
I752
sV\u0a02 \u0a28
p723
I246
sV\u0a02 \u0a2a
p724
I494
sV\u0a32\u0a48
p725
I600
sV\u0a28\u0964\u000a
p726
I235
sV\u0a32\u0a4b
p727
I292
sV \u0a26\u0a30
p728
I957
sV\u0a24\u0a47 
p729
I64
sV\u0a02 \u0a15
p730
I403
sV\u0a32\u0a71
p731
I840
sV\u0a30\u0a47 
p732
I398
sV\u0a25\u0a47
p733
I922
sV\u0a23 \u0a32
p734
I925
sV\u0a02 \u0a1c
p735
I727
sV \u0a26\u0a3f
p736
I296
sV \u0a26\u0a3e
p737
I124
sV \u0a32\u0a4b
p738
I599
sV\u0a02 \u0a05
p739
I577
sV\u0a02 \u0a07
p740
I674
sV\u0a02 \u0a09
p741
I768
sV\u0a32\u0a3e\u0a02
p742
I540
sV\u0a70\u0a21 
p743
I934
sV\u0a38\u0a3c\u0a3f
p744
I854
sV\u0a38\u0a3c\u0a3e
p745
I275
sV\u0a06 \u0a17
p746
I940
sV\u0a40 \u0a26
p747
I212
sV\u0a40 \u0a24
p748
I527
sV\u0a2c\u0a23\u0a3e
p749
I931
sV\u0a40 \u0a2a
p750
I297
sV\u0a40 \u0a28
p751
I348
sV\u0a40 \u0a2e
p752
I409
sV\u0a40 \u0a2d
p753
I969
sV\u0a40 \u0a2c
p754
I615
sV\u0a40 \u0a32
p755
I662
sV\u0a13
I636
sV\u0a40 \u0a30
p756
I595
sV\u0a40 \u0a35
p757
I266
sV\u0a38\u0a3c\u0a28
p758
I538
sV\u0a40 \u0a39
p759
I186
sV\u0a40 \u0a38
p760
I168
sV\u0a1c\u0a3e 
p761
I659
sV\u0a38\u0a3c\u0a1f
p762
I963
sV\u0a23
I63
sV\u0a35\u0a3f\u0a38
p763
I686
sV\u0a40 \u0a07
p764
I626
sV\u0a40 \u0a06
p765
I924
sV\u0a40 \u0a05
p766
I319
sV\u0a39\u0a28 
p767
I479
sV\u0a06 \u0a39
p768
I578
sV\u0a06 \u0a38
p769
I532
sV\u0a06 
p770
I105
sV\u0a40 \u0a17
p771
I605
sV\u0a26\u0a40 
p772
I72
sV\u0a40 \u0a15
p773
I272
sV\u0a42\u0a30
p774
I347
sV\u0a2e\u0a39
p775
I661
sV\u0a40 \u0a1c
p776
I329
sV\u0a2a\u0a30 
p777
I721
sV\u0a39\u0a3f\u0a32
p778
I521
sV\u0a2a\u0a41\u0a30
p779
I908
sV\u0a48\u0a15
p780
I751
sV\u0a26 
p781
I208
sV\u0a3e\u0a1c 
p782
I887
sV\u0a22
I943
sV\u0a47 \u0a24
p783
I499
sV\u0a3e\u0a09\u0a23
p784
I928
sV\u0a48\u0a02
p785
I385
sV\u0a38\u0a25\u0a3e
p786
I709
sV\u0a15\u0a40 
p787
I723
sV\u0a40 
p788
I15
sV\u0a05\u0a38
p789
I976
sV\u0a70\u0a26\u0a30
p790
I872
sV\u0a48\u0a32
p791
I844
sV\u0a2e\u0a3f\u0a32
p792
I697
sV\u0a2e 
p793
I134
sV\u0a30\u0a15\u0a3e
p794
I838
sV\u0a1f\u0a40 
p795
I564
sV\u0a30\u0a71\u0a16
p796
I962
sV\u0a48 \u0a1c
p797
I491
sV\u0a48 \u0a15
p798
I814
sV\u0a38\u0a3c\u0a40
p799
I897
sV\u0a38\u0a2a
p800
I937
sV\u0a09\u0a39 
p801
I376
sV\u0a06 \u0a1c
p802
I542
sV\u000a
I33
sV \u0a2a\u0a4d
p803
I171
sV\u0a2a\u0a24
p804
I584
sV \u0a2a\u0a48
p805
I930
sV\u0a39\u0a41\u0a24
p806
I846
sV\u0a3f\u0a30 
p807
I841
sV\u0a35\u0a32
p808
I956
sV\u0a39\u0a3e 
p809
I569
sV\u0a3e \u0a17
p810
I611
sV \u0a38\u0a15
p811
I469
sV\u0a21\u0a3e
p812
I513
sV\u0a2e\u0a28
p813
I680
sV\u0a24\u0a4c
p814
I766
sV \u0a38\u0a28
p815
I576
sV\u0964\u000a
p816
I40
sV \u0a38\u0a2e
p817
I313
sV \u0a38\u0a2d
p818
I705
sV\u0a24\u0a47
p819
I60
sV \u0a2a\u0a71
p820
I997
sV \u0a2a\u0a70
p821
I634
sV\u0a24\u0a40
p822
I132
sV\u0a2e
I20
sV\u000a\u0a07\u0a38
p823
I381
sV\u000a\u0a07\u0a39
p824
I551
sV\u0a28 \u0a38
p825
I655
sV\u0a24\u0a4b\u0a02
p826
I177
sV \u0a38\u0a3e
p827
I234
sV\u0a2e\u0a3e
p828
I136
sV \u0a38\u0a3c
p829
I200
sV\u0a2e\u0a30
p830
I530
sV\u0a2e\u0a32
p831
I802
sV\u0a3f 
p832
I241
sV\u0a3c\u0a3e 
p833
I858
sV\u0a3e
I1
sV\u0a2e\u0a48
p834
I534
sV\u0a39\u0a4b 
p835
I664
sV\u0a15\u0a48
p836
I989
sV\u0a2e\u0a40
p837
I364
sV\u0a39 
p838
I135
sV \u0a38\u0a41
p839
I652
sV \u0a38\u0a40
p840
I156
sV\u0a39\u0a48\u0964
p841
I107
sV\u0a2e\u0a47
p842
I440
sV\u0a24\u0a3e
p843
I93
sV\u0a24\u0a3f
p844
I380
sV\u0a24\u0a4c\u0a30
p845
I783
sV\u0a17\u0a4b
p846
I955
sV\u0a38\u0a2e\u0a47
p847
I952
sV\u0a28 \u0a32
p848
I868
sV\u0a24\u0a3e\u0964
p849
I864
sV\u0a39\u0a3f\u0a70
p850
I837
sV\u0a1a \u0a15
p851
I733
sV\u0a28\u0a42\u0a70
p852
I117
sV\u0a24\u0a30
p853
I219
sV\u0a47 \u0a39
p854
I190
sV\u0a21\u0a40
p855
I507
sV \u0a2a\u0a3f
p856
I535
sV \u0a2a\u0a3e
p857
I444
sV \u0a2a\u0a39
p858
I480
sV\u0964
I37
sV\u0a15 \u0a38
p859
I461
sV\u0a4d\u0a39\u0a3e
p860
I367
sV\u0a15 \u0a35
p861
I759
sV \u0a32\u0a3e
p862
I856
sV \u0a2a\u0a30
p863
I451
sV\u0a1a \u0a39
p864
I816
sV\u0a1a \u0a38
p865
I498
sV\u0a15 \u0a2a
p866
I786
sV\u0a1c\u0a4b 
p867
I505
sV\u0a1c 
p868
I322
sV\u0a2e\u0a70
p869
I628
sV\u0a2a\u0a23\u0a40
p870
I879
sV \u0a38\u0a70
p871
I307
sV\u0a1a \u0a35
p872
I736
sV\u0a35\u0a3e 
p873
I986
sV\u0a41\u0a24 
p874
I896
sV\u0a41\u0a06
p875
I560
sV\u0a09
I65
sV\u0a3e\u0a02 
p876
I56
sV\u0a2a\u0a70
p877
I523
sV\u0a39\u0a41\u0a70
p878
I358
sV\u0a17\u0a08
p879
I702
sV\u0a41\u0a15
p880
I775
sV\u0a47 \u0a32
p881
I604
sV\u0a3c 
p882
I216
sV\u0a3f\u0a15 
p883
I415
sV\u0a38\u0a30
p884
I389
sV\u0a47 \u0a2c
p885
I406
sV\u0a41\u0a23
p886
I978
sV \u0a06\u0a2a
p887
I343
sV\u0a07\u0a38 
p888
I240
sV\u0a41\u0a24
p889
I648
sV\u0a40\u0964
p890
I207
sV\u0a41\u0a28
p891
I958
sV\u0a2a\u0a4d
p892
I154
sV\u0a41\u0a32
p893
I734
sV\u0a2a\u0a48
p894
I813
sV\u0a17\u0a32
p895
I953
sV\u0a17\u0a30
p896
I437
sV\u0a17\u0a3f
p897
I256
sV\u0a3e \u0a39
p898
I129
sV\u0a2a\u0a47
p899
I827
sV\u0a2a\u0a40
p900
I708
sV\u0a3e\u0a30 
p901
I155
sV\u0a2a\u0a42
p902
I592
sV\u0a47 \u0a1c
p903
I428
sV\u0a2a\u0a3e
p904
I278
sV\u0a2a\u0a3f
p905
I372
sV\u0a2a\u0a39
p906
I448
sV\u0a17\u0a41
p907
I593
sV\u0a17\u0a40
p908
I531
sV\u0a3e \u0a05
p909
I474
sV\u0a47 \u0a15
p910
I259
sV\u0a3e \u0a07
p911
I761
sV\u0a47 \u0a17
p912
I650
sV\u0a2a\u0a30
p913
I280
sV\u0a3e \u0a1c
p914
I394
sV\u0a02\u0a26\u0a40
p915
I731
sV\u0a47 \u0a09
p916
I397
sV\u0a3e \u0a15
p917
I298
sV\u0a47 \u0a05
p918
I341
sV\u0a47 \u0a06
p919
I464
sV\u0a47 \u0a07
p920
I338
sV\u0a15 
p921
I73
sV\u0a2a\u0a23
p922
I340
sV\u0a3e \u0a2c
p923
I883
sV\u0a3e \u0a2e
p924
I623
sV\u0a47 \u0a38
p925
I163
sV\u0a40\u0964\u000a
p926
I209
sV\u0a3e \u0a2a
p927
I410
sV\u0a2e \u0a15
p928
I949
sV\u0a47 \u0a35
p929
I248
sV\u0a3e \u0a26
p930
I294
sV\u0a47 \u0a30
p931
I496
sV\u0a39\u0a28\u0964
p932
I295
sV\u0a3e \u0a30
p933
I823
sV\u0a41\u0a71
p934
I250
sV\u0a41\u0a70
p935
I282
sV\u0a47 \u0a2e
p936
I353
sV\u0a28\u0a3e\u0a32
p937
I228
sV\u0a47 \u0a28
p938
I310
sV\u0a3e \u0a38
p939
I222
sV\u0a47 \u0a2a
p940
I242
sV\u0a3c\u0a28 
p941
I658
sV\u0a47\u0a38\u0a3c
p942
I349
sV\u0a47 \u0a26
p943
I262
sV\u0a40 \u0a09
p944
I747
sV\u0a3e \u0a32
p945
I861
s.