(dp1
V \u0c35\u0c3e
p2
I276
sV \u0c35\u0c3f
p3
I155
sV \u0c35\u0c38
p4
I866
sV\u0c32 \u0c26
p5
I996
sV\u0c47\u0c1f
p6
I849
sV\u0c08
I176
sV\u0c32 \u0c2a
p7
I755
sV \u0c35\u0c30
p8
I784
sV\u0c47\u0c15
p9
I495
sV\u0c3f\u0c17\u0c3e
p10
I573
sV\u0c23 
p11
I569
sV\u0c47\u0c02
p12
I505
sV\u0c32 \u0c38
p13
I833
sV\u0c32\u0c3f\u0c17
p14
I995
sV\u0c02 \u0c09
p15
I880
sV\u0c47\u0c02\u0c26
p16
I547
sV 
I0
sV\u0c47\u0c35
p17
I473
sV \u0c2e\u0c4a
p18
I655
sV \u0c35\u0c1a
p19
I976
sV\u0c47\u0c30
p20
I349
sV \u0c2e\u0c41
p21
I621
sV\u0c28
I6
sV\u0c47\u0c38
p22
I237
sV\u0c47\u0c26
p23
I477
sV\u0c47\u0c24
p24
I896
sV\u0c37\u0c3f
p25
I640
sV\u0c47\u0c2f
p26
I526
sV\u0c38
I13
sV\u0c47\u0c28
p27
I988
sV  
p28
I119
sV \u0c1c\u0c30
p29
I659
sV\u0c30\u0c4d\u0c1a
p30
I927
sV\u0c48
I92
sV\u0c4d \u0c05
p31
I834
sV\u000a\u0c2a\u0c4d
p32
I969
sV\u0c4d \u0c35
p33
I874
sV\u0c21\u0c3f\u0c02
p34
I924
sV \u0c2e\u0c3e
p35
I361
sV\u0c32\u0c3e 
p36
I515
sV\u0c28\u0c47 
p37
I444
sV\u000a\u0c08 
p38
I478
sV\u0c46\u0c32\u0c41
p39
I889
sV\u0c38\u0c3f\u0c28
p40
I513
sV \u0c2e\u0c02
p41
I483
sV \u0c35\u0c4d
p42
I392
sV\u0c32\u0c4b 
p43
I52
sV\u0c46\u0c1f\u0c4d
p44
I653
sV\u0c32 \u0c35
p45
I973
sV \u0c35\u0c46
p46
I614
sV\u0c2d\u0c3e
p47
I266
sV\u0c17\u0c41\u0c30
p48
I704
sV\u0c4d\u0c25
p49
I263
sV\u0c4d\u0c24
p50
I64
sV\u0c4d\u0c27
p51
I456
sV\u0c3f\u0c28\u0c3f
p52
I328
sV\u0c4d\u0c21
p53
I498
sV\u0c30\u0c41\u0c35
p54
I825
sV\u0c4d\u0c23
p55
I807
sV\u0c4d\u0c2f
p56
I45
sV\u0c4d\u0c2e
p57
I185
sV\u0c4d\u0c28
p58
I59
sV\u0c4d\u0c2a
p59
I148
sV\u0c4d\u0c35
p60
I116
sV\u0c15\u0c41\u0c28
p61
I583
sV\u0c4d\u0c37
p62
I251
sV\u0c3e\u0c24\u0c4d
p63
I628
sV\u0c4d\u0c30
p64
I26
sV\u0c33\u0c4d
p65
I454
sV\u0c4d\u0c32
p66
I88
sV\u0c4d\u0c38
p67
I225
sV\u0c06\u0c30
p68
I633
sV\u0c46 
p69
I854
sV\u0c23
I117
sV \u0c15\u0c3f
p70
I370
sV\u0c30\u0c41\u0c17
p71
I665
sV\u0c2f\u0c3e\u0c32
p72
I570
sV\u000a\u0c30
p73
I929
sV\u0c42\u0c30\u0c4d
p74
I538
sV \u0c15\u0c32
p75
I557
sV\u0c4d\u0c15
p76
I163
sV\u0c26\u0c41
p77
I175
sV\u0c30 
p78
I287
sV \u0c15\u0c28
p79
I992
sV\u0c26\u0c47
p80
I308
sV\u0c4d\u0c1f
p81
I114
sV\u0c15\u0c41\u0c02
p82
I722
sV\u0c26\u0c4d
p83
I93
sV\u0c08 \u0c15
p84
I968
sV\u0c4d\u0c1a
p85
I231
sV\u0c26\u0c30
p86
I409
sV\u0c47\u0c37
p87
I851
sV\u0c43
I342
sV\u0c47\u0c36
p88
I316
sV\u0c3e\u0c23
p89
I604
sV\u0c2e\u0c3f\u0c15
p90
I900
sV\u0c26\u0c3e
p91
I226
sV\u0c26\u0c3f
p92
I47
sV \u0c15\u0c4d
p93
I671
sV \u0c15\u0c4a
p94
I479
sV \u0c15\u0c4b
p95
I695
sV\u0c26\u0c28
p96
I913
sV \u0c15\u0c47
p97
I582
sV\u0c4d\u0c32 
p98
I696
sV\u0c40\u0c1f
p99
I567
sV \u0c15\u0c42
p100
I555
sV\u0c37\u0c4d\u0c1f
p101
I731
sV\u0c33\u0c3e
p102
I885
sV\u0c32\u0c41\u0c17
p103
I637
sV\u0c40\u0c2a
p104
I742
sV\u0c40\u0c28
p105
I536
sV\u0c38\u0c41\u0c15
p106
I684
sV\u0c40\u0c32
p107
I654
sV\u0c3f\u0c28\u0c4d
p108
I739
sV\u0c40\u0c30
p109
I422
sV\u0c48\u0c28 
p110
I318
sV \u0c07\u0c02
p111
I850
sV\u0c40\u0c35
p112
I821
sV\u0c3f\u0c15\u0c3e
p113
I936
sV\u0c40\u0c38
p114
I548
sV\u0c02\u0c16\u0c4d
p115
I788
sV\u0c41 \u0c2a
p116
I200
sV\u0c2f\u0c4d
p117
I772
sV\u0c0e
I241
sV\u0c41\u0c32\u0c41
p118
I190
sV\u0c2d\u0c3f
p119
I664
sV\u0c24\u0c4b 
p120
I269
sV\u0c2f\u0c4b
p121
I562
sV\u0c41\u0c32\u0c4b
p122
I457
sV\u0c28 \u0c15
p123
I733
sV\u0c28 \u0c2a
p124
I471
sV\u0c4a\u0c02\u0c26
p125
I993
sV\u0c02\u0c24\u0c4b
p126
I794
sV\u0c2e
I15
sV\u0c05\u0c28\u0c47
p127
I714
sV \u0c32\u0c47
p128
I564
sV\u0c28 \u0c38
p129
I668
sV\u0c47\u0c38\u0c4d
p130
I841
sV\u0c32 \u0c15
p131
I707
sV\u0c15\u0c4d\u0c1f
p132
I914
sV \u0c32\u0c4b
p133
I439
sV\u0c3e
I3
sV\u0c4d \u0c15
p134
I514
sV\u0c35\u0c3e\u0c24
p135
I767
sV\u0c1f\u0c3f 
p136
I274
sV\u0c05\u0c28\u0c3f
p137
I781
sV\u0c30\u0c3f\u0c02
p138
I393
sV\u0c46\u0c1f
p139
I591
sV\u0c35\u0c3e\u0c30
p140
I179
sV\u0c38\u0c2e\u0c40
p141
I955
sV\u0c46\u0c02
p142
I267
sV\u0c1f\u0c4d 
p143
I629
sV\u0c41 \u0c24
p144
I429
sV\u0c39\u0c3f
p145
I425
sV\u0c39\u0c3e
p146
I441
sV\u000a\u0c2e
p147
I468
sV\u0c46\u0c30
p148
I608
sV\u0c02\u0c1f\u0c3f
p149
I687
sV\u0c46\u0c32
p150
I339
sV\u0c15\u0c3f 
p151
I137
sV\u0c4d \u0c32
p152
I923
sV\u0c4b\u0c28\u0c3f
p153
I605
sV\u0c17\u0c4d\u0c30
p154
I259
sV\u0c02\u0c16
p155
I773
sV\u0c4d \u0c38
p156
I544
sV\u0c4d\u0c30\u0c15
p157
I946
sV\u0c1f\u0c40
p158
I801
sV\u0c46\u0c28
p159
I634
sV\u0c4d \u0c2a
p160
I486
sV\u0c4d \u0c28
p161
I902
sV\u0c2a\u0c3f\u0c02
p162
I842
sV\u0c4d\u0c30\u0c02
p163
I460
sV\u0c3f\u0c24\u0c4d
p164
I434
sV\u0c09
I84
sV \u0c24\u0c46
p165
I660
sV\u0c41  
p166
I626
sV\u0c30\u0c3e\u0c02
p167
I690
sV\u0c3f\u000a\u0c2a
p168
I727
sV\u0c02\u000a
p169
I765
sV \u0c24\u0c40
p170
I888
sV\u0c2d\u0c3e\u0c30
p171
I998
sV \u0c21
p172
I494
sV\u0c30\u0c3e\u0c1c
p173
I446
sV\u0c40\u0c38\u0c41
p174
I837
sV \u0c26
p175
I131
sV\u000a\u0c28
p176
I746
sV\u0c3f\u000a\u0c38
p177
I847
sV\u0c1f\u0c3f
p178
I127
sV\u0c12\u0c15
p179
I320
sV\u0c4d\u0c30\u0c24
p180
I565
sV\u0c3f\u000a\u0c05
p181
I728
sV\u0c02 
p182
I51
sV\u0c30\u0c3e\u0c2e
p183
I363
sV\u0c4d\u0c30\u0c2e
p184
I405
sV\u0c3f \u0c26
p185
I785
sV\u0c3f\u000a\u0c08
p186
I817
sV\u0c1f\u0c30
p187
I519
sV \u0c05\u0c24
p188
I768
sV\u0c3f\u000a\u0c15
p189
I951
sV\u0c15\u0c4d 
p190
I877
sV\u0c4d\u0c30\u0c3e
p191
I134
sV\u0c4d\u0c30\u0c3f
p192
I365
sV\u0c30\u0c3e\u0c32
p193
I470
sV \u0c12\u0c15
p194
I368
sV\u0c21
I20
sV \u0c05\u0c27
p195
I982
sV\u0c27\u0c4d\u0c2f
p196
I623
sV\u0c4d\u0c30\u0c40
p197
I516
sV\u0c1f\u0c3e
p198
I280
sV\u0c3f\u0c37
p199
I553
sV\u0c3f\u0c36
p200
I613
sV\u0c3f\u0c35
p201
I256
sV\u0c2c\u0c4d
p202
I359
sV\u0c02\u0c26
p203
I41
sV\u0c3f\u0c30
p204
I220
sV\u0c3f\u0c2f
p205
I229
sV\u0c3f\u0c2e
p206
I436
sV\u0c1f\u0c4d
p207
I121
sV\u0c41 \u0c09
p208
I418
sV\u0c3f\u0c2a
p209
I282
sV\u0c3f\u0c28
p210
I83
sV\u0c1f\u0c47
p211
I688
sV\u0c3f\u0c26
p212
I426
sV\u0c3f\u0c24
p213
I159
sV\u0c15 
p214
I129
sV\u0c1f\u0c41
p215
I238
sV\u0c15\u0c4d\u0c30
p216
I501
sVa
I804
sV\u0c05\u0c2f
p217
I956
sV\u0c3f\u0c1c
p218
I703
sV\u000a\u0c15
p219
I427
sV\u0c05\u0c28
p220
I203
sV \u0c24\u0c28
p221
I835
sV\u0c3f\u0c17
p222
I210
sV\u0c05\u0c24
p223
I600
sV\u0c3f\u0c15
p224
I63
sV\u0c2c\u0c21
p225
I447
sV\u0c2f 
p226
I186
sV\u0c2a\u0c4d\u0c2a
p227
I297
sV\u0c05\u0c35
p228
I556
sV\u0c47\u0c38\u0c3f
p229
I686
sV\u0c28\u0c4d 
p230
I277
sV\u0c3f\u0c02
p231
I46
sV\u0c38\u0c4d\u0c1f
p232
I482
sV\u0c32\u0c15
p233
I290
sV\u0c30\u0c02\u0c32
p234
I674
sV\u0c2b\u0c4d
p235
I922
sV\u0c15\u0c30\u0c4d
p236
I717
sV\u0c30\u0c42
p237
I898
sV\u200c
I260
sV\u0c4d\u0c33
p238
I723
sV\u0c1a\u0c3f\u0c02
p239
I581
sV\u0c02
I7
sV\u0c32\u0c02
p240
I459
sV\u0c17\u0c3f\u0c02
p241
I912
sV\u0c15\u0c4d
p242
I71
sV\u0c30\u0c02\u0c17
p243
I803
sV\u0c24
I10
sV\u0c32\u0c32
p244
I306
sV\u0c32\u0c3e
p245
I181
sV\u0c32\u0c3f
p246
I139
sV\u0c32\u0c24
p247
I856
sV\u0c35\u0c39
p248
I964
sV\u0c1a\u0c3f\u0c24
p249
I917
sV\u0c1a\u0c3f\u0c28
p250
I407
sV\u0c08 
p251
I207
sV\u0c32\u0c2f
p252
I721
sV\u0c32\u0c28
p253
I206
sV\u0c3e\u0c2e\u0c02
p254
I826
sV\u0c2a\u0c24\u0c4d
p255
I718
sV\u0c35\u0c1a\u0c4d
p256
I648
sV\u0c15\u0c4b
p257
I353
sV\u0c40\u0c1f\u0c3f
p258
I860
sV\u0c3e\u0c28\u0c02
p259
I975
sV\u0c39
I99
sV\u0c32\u0c46
p260
I938
sV\u0c32\u0c47
p261
I335
sV\u0c02\u0c32\u0c4b
p262
I142
sV\u0c32\u0c41
p263
I50
sV\u0c2c\u0c3f
p264
I974
sV\u0c32\u0c4d
p265
I101
sV\u0c3f\u0c32
p266
I162
sV\u0c32\u0c4b
p267
I36
sV\u0c42 
p268
I367
sV\u0c36\u0c3e\u0c32
p269
I480
sV\u0c4b\u0c32
p270
I941
sV\u0c02\u0c38
p271
I806
sV\u0c38\u0c02\u0c16
p272
I798
sV \u0c2c\u0c3e
p273
I786
sV\u0c15\u0c40
p274
I894
sV\u0c43\u0c24
p275
I892
sV\u0c21\u0c32
p276
I683
sV\u0c28\u0c3f\u0c2f
p277
I918
sV\u0c3e\u0c2c
p278
I824
sV\u0c15\u0c42
p279
I401
sV\u0c35 
p280
I414
sV\u0c05\u0c27
p281
I943
sV\u0c17\u0c41\u0c24
p282
I819
sV\u0c38\u0c2e
p283
I323
sV\u0c21\u0c41 
p284
I217
sV\u0c26\u0c30\u0c4d
p285
I831
sV\u0c2c\u0c02
p286
I934
sV\u0c33\u0c4d\u0c33
p287
I724
sV\u0c0f
I506
sV\u0c2e\u0c41\u0c32
p288
I756
sV\u0c02\u0c27
p289
I820
sV\u0c38\u0c3e
p290
I167
sV\u0c38\u0c3f
p291
I156
sV\u0c32\u0c3f 
p292
I832
sV\u0c38\u0c30
p293
I327
sV \u0c28\u0c40
p294
I793
sV\u0c1f
I24
sV \u0c2a\u0c46
p295
I559
sV\u0c4d\u0c2a\u0c41
p296
I592
sV\u0c28\u0c26\u0c3f
p297
I925
sV\u0c28\u0c3e 
p298
I720
sV\u0c38\u0c02
p299
I154
sV\u0c3f\u0c38
p300
I209
sV\u0c2f
I17
sV\u0c21\u0c41\u000a
p301
I235
sV\u0c3e\u0c38\u0c4d
p302
I711
sV\u0c28\u0c3f 
p303
I76
sV\u0c4a\u0c28
p304
I543
sV\u0c21\u0c3e\u0c28
p305
I870
sV\u0c02\u0c17\u0c4d
p306
I757
sV\u0c3f
I2
sV\u0c4d\u0c24\u0c3f
p307
I332
sV\u0c2c\u0c3e
p308
I410
sV\u0c3f\u0c2f\u0c3e
p309
I771
sV\u0c24\u0c41\u0c02
p310
I412
sV\u0c28\u0c41 
p311
I135
sV\u0c15\u0c41\u0c32
p312
I715
sV\u0c21\u0c3f 
p313
I245
sV\u0c41\u000a\u0c15
p314
I895
sV\u0c02\u0c17\u0c3e
p315
I208
sV\u0c15\u0c30
p316
I310
sV\u0c09\u0c02\u0c1f
p317
I810
sV\u0c32\u0c32\u0c4b
p318
I396
sV \u0c24\u0c30
p319
I876
sV\u0c05\u0c02
p320
I309
sV\u0c41\u000a\u0c05
p321
I643
sV \u0c35\u0c47
p322
I680
sV \u0c28\u0c3f
p323
I254
sV \u0c28\u0c3e
p324
I561
sV\u0c32\u0c41 
p325
I68
sV\u0c38\u0c4d
p326
I40
sV\u0c09\u0c02\u0c21
p327
I930
sV\u0c38\u0c41
p328
I205
sV\u0c24\u0c41\u0c28
p329
I466
sV\u0c4d\u0c1f\u0c41
p330
I829
sV\u0c09\u0c02\u0c26
p331
I438
sV\u0c24\u0c28 
p332
I760
sV\u0c2e 
p333
I578
sV\u0c41\u000a\u0c2a
p334
I958
sV\u0c3f  
p335
I445
sV\u0c28\u0c3e\u0c2f
p336
I352
sV\u0c24\u0c41\u0c32
p337
I598
sV\u0c41\u0c24\u0c41
p338
I453
sV\u0c1a\u0c47 
p339
I963
sV\u0c48 
p340
I632
sV\u0c41\u0c24\u0c4d
p341
I987
sV\u0c41\u0c24\u0c4b
p342
I857
sV\u0c3e\u0c38
p343
I286
sV\u0c3e\u0c39
p344
I752
sV\u0c35\u0c3f 
p345
I940
sV\u0c3e\u0c30
p346
I29
sV\u0c4b\u0c2a
p347
I978
sV\u0c3e\u0c32
p348
I43
sV\u0c4b\u0c28
p349
I319
sV\u0c3e\u0c35
p350
I324
sV\u0c2f\u0c02 
p351
I331
sV\u0c3e\u0c37
p352
I858
sV\u0c3e\u0c28
p353
I67
sV\u0c3f\u0c27
p354
I845
sV\u0c3e\u0c2a
p355
I500
sV\u0c4d\u0c26
p356
I357
sV\u0c47\u0c36\u0c3e
p357
I712
sV\u000a\u0c07\u0c26
p358
I792
sV\u0c3e\u0c2e
p359
I197
sV\u0c3e\u0c2f
p360
I113
sV\u0c3e\u0c21
p361
I150
sV\u0c1a
I22
sV\u0c3e\u0c24
p362
I215
sV\u0c3e\u0c26
p363
I424
sV\u0c3e\u0c27
p364
I481
sV\u0c3e\u0c17
p365
I326
sV\u0c24\u0c4d
p366
I62
sV\u0c3e\u0c1c
p367
I362
sV\u0c24\u0c4b
p368
I194
sV\u0c3e\u0c1f
p369
I294
sV\u0c24\u0c46
p370
I533
sV\u0c15\u0c47\u0c02
p371
I698
sV\u0c2a
I12
sV\u0c24\u0c42
p372
I766
sV\u0c3e\u0c15
p373
I303
sV\u0c24\u0c40
p374
I406
sV\u0c24\u0c41
p375
I122
sV\u0c3e\u0c32\u0c28
p376
I474
sV\u0c2a\u0c24
p377
I527
sV\u0c4b\u0c17
p378
I537
sV\u0c3e\u0c02
p379
I191
sV\u0c3f 
p380
I16
sV\u0c4b\u0c1f
p381
I947
sV\u0c41\u0c30\u0c41
p382
I915
sV\u0c4d\u0c1a\u0c41
p383
I945
sV\u0c24\u0c2e
p384
I597
sV\u0c16\u0c4d\u0c2f
p385
I529
sV\u0c3f\u0c17\u0c3f
p386
I531
sV\u0c32\u0c15\u0c41
p387
I461
sV\u0c4b \u0c05
p388
I799
sV\u0c24\u0c28
p389
I338
sV\u0c4b \u0c09
p390
I496
sV\u0c27\u0c3e\u0c28
p391
I814
sV\u0c4a
I105
sV\u0c4d\u0c28 
p392
I334
sV\u0c2f\u0c3f\u000a
p393
I243
sV\u0c24\u0c3e
p394
I164
sV\u0c24\u0c3f
p395
I126
sV\u0c4b \u0c15
p396
I606
sV\u0c24\u0c32
p397
I811
sV\u0c2e\u0c02\u0c21
p398
I986
sV\u0c24\u0c30
p399
I313
sV\u0c3f\u0c1a
p400
I609
sV\u0c30\u0c02
p401
I138
sV\u0c3e\u0c32 
p402
I369
sV\u0c3f\u0c32\u0c4b
p403
I437
sV\u0c4d\u0c2f\u0c35
p404
I681
sV\u0c4b \u0c28
p405
I883
sV\u0c4b \u0c2a
p406
I390
sV\u0c4d\u0c2e\u0c3f
p407
I881
sV\u0c24\u0c02
p408
I304
sV\u0c4b \u0c2e
p409
I642
sV\u0c21\u0c4d\u0c21
p410
I907
sV\u0c4b \u0c35
p411
I455
sV\u0c24\u0c02 
p412
I622
sV\u0c4b \u0c38
p413
I679
sV\u0c38\u0c3f\u0c02
p414
I865
sV\u0c24\u0c15
p415
I980
sV\u0c2a\u0c4d\u0c30
p416
I82
sV\u0c1f\u0c41\u0c02
p417
I843
sV\u0c3f\u000a\u0c2e
p418
I871
sV\u0c35\u0c41\u0c32
p419
I595
sV\u0c3f\u0c15\u0c3f
p420
I152
sV\u0c17\u0c02
p421
I566
sV\u0c12\u0c15 
p422
I458
sV\u0c41\u000a
p423
I75
sV\u0c26\u0c3f\u0c28
p424
I966
sV\u0c2a\u0c41\u0c21
p425
I939
sV\u0c41\u0c28\u0c4d
p426
I249
sV\u0c24\u0c3e\u0c30
p427
I689
sV\u0c15
I9
sV\u0c3e\u0c30\u0c02
p428
I490
sV\u0c41 
p429
I18
sV\u0c3e\u0c30\u0c3f
p430
I272
sV\u0c3e\u0c30\u0c3e
p431
I391
sV\u0c25
I157
sV\u0c2e\u0c4d\u0c2e
p432
I673
sV\u0c38\u0c3f 
p433
I813
sV\u0c37\u0c4d
p434
I293
sV \u0c1a\u0c46
p435
I416
sV\u0c2a\u0c4d
p436
I54
sV\u0c35
I11
sV\u0c2a\u0c4a
p437
I790
sV\u0c2a\u0c4b
p438
I330
sV\u0c17\u0c3f
p439
I273
sV\u0c17\u0c3e
p440
I80
sV\u0c2a\u0c46
p441
I394
sV\u0c4d\u0c2f 
p442
I285
sV\u0c2a\u0c41
p443
I160
sV\u0c2a\u0c42
p444
I667
sV\u0c2a\u0c3e
p445
I141
sV\u0c2a\u0c3f
p446
I264
sV\u0c3e \u0c09
p447
I546
sV\u0c17\u0c41
p448
I165
sV\u0c3e \u0c05
p449
I796
sV\u0c17\u0c4d
p450
I144
sV\u0c26\u0c4d\u0c35
p451
I618
sV\u0c2a\u0c30
p452
I329
sV \u0c15\u0c3e
p453
I224
sV\u0c26\u0c4d\u0c30
p454
I374
sV\u0c24\u0c46\u0c32
p455
I762
sV\u0c3e\u0c30\u0c4d
p456
I223
sV\u0c26\u0c4d\u0c2f
p457
I499
sV \u0c1a\u0c3f
p458
I534
sV\u0c4d\u0c38\u0c4d
p459
I584
sV\u0c2a\u0c28
p460
I830
sV\u0c2e\u0c46
p461
I440
sV\u0c35\u0c41 
p462
I967
sV\u0c26\u0c4d\u0c26
p463
I432
sV\u0c26\u0c4d\u0c27
p464
I588
sV\u0c2a\u0c26
p465
I758
sV\u0c30\u0c3f\u0c15
p466
I452
sV\u0c3e\u0c30\u0c41
p467
I115
sV\u0c2a\u0c21
p468
I682
sV\u0c30\u0c4d\u0c35
p469
I552
sV\u0c2a\u0c1f
p470
I593
sV\u0c3e \u0c28
p471
I962
sV\u0c30\u0c4d\u0c32
p472
I502
sV\u0c3e \u0c2a
p473
I402
sV\u0c02\u0c1a\u0c3f
p474
I187
sV\u0c02\u0c1a\u0c3e
p475
I321
sV\u0c30\u0c35
p476
I649
sV\u0c35\u0c3e\u0c32
p477
I942
sV\u0c2f\u0c32
p478
I869
sV\u0c30\u0c4d\u0c24
p479
I535
sV\u0c30\u0c4d\u0c25
p480
I970
sV\u0c32\u0c4d 
p481
I463
sV\u0c3e \u0c38
p482
I779
sV\u0c3f\u0c15\u0c4d
p483
I713
sV\u0c23\u0c02
p484
I678
sV\u0c3e \u0c35
p485
I503
sV\u0c30\u0c4d\u0c2e
p486
I540
sV\u0c30\u0c4d\u0c2f
p487
I419
sV\u0c30\u0c38
p488
I560
sV\u0c2a\u0c02
p489
I476
sV\u0c41\u0c15\u0c41
p490
I289
sV\u0c30\u0c46\u0c02
p491
I903
sV\u0c3f\u0c2e\u0c3e
p492
I950
sV\u0c3e\u0c2e\u0c3e
p493
I990
sV\u0c2f\u0c4d\u0c2f
p494
I897
sV\u0c4d\u0c24\u0c41
p495
I233
sV\u0c1f\u0c3f\u0c15
p496
I890
sV\u0c2c\u0c21\u0c3f
p497
I769
sV\u0c4d\u0c1f\u0c3f
p498
I666
sV\u0c4d\u0c1f\u0c3e
p499
I783
sV\u0c26\u0c40
p500
I656
sV\u0c38\u0c47
p501
I908
sV\u0c33
I161
sV\u0c4d\u0c17
p502
I524
sV\u0c30
I5
sV\u0c18
I983
sV\u0c32\u0c24\u0c4b
p503
I953
sV\u0c47 
p504
I118
sV\u0c28\u0c02 
p505
I699
sV\u0c40
I32
sV\u0c40\u0c28\u0c3f
p506
I959
sV\u0c3e\u0c2f\u0c3f
p507
I188
sV \u0c05\u0c28
p508
I227
sV \u0c24
p509
I97
sV \u0c2a
p510
I27
sV \u0c2b
p511
I732
sV \u0c28
p512
I70
sV\u0c1f\u0c41 
p513
I646
sV \u0c2e
p514
I60
sV \u0c2f
p515
I443
sV \u0c2c
p516
I174
sV \u0c2d
p517
I252
sV \u0c32
p518
I149
sV \u0c30
p519
I109
sV\u0c3f\u0c32\u0c4d
p520
I510
sV \u0c36
p521
I262
sV \u0c35
p522
I30
sV \u0c05\u0c35
p523
I580
sV \u0c38
p524
I34
sV \u0c39
p525
I435
sV\u0c2f\u0c3e 
p526
I944
sV\u0c4a\u0c02
p527
I508
sV\u0c28\u0c3e\u0c30
p528
I568
sV\u0c28\u0c3e\u0c32
p529
I893
sV \u0c06
p530
I123
sV \u0c07
p531
I221
sV\u0c4d\u0c1f\u0c4d
p532
I705
sV \u0c05
p533
I53
sV \u0c08
p534
I344
sV \u0c09
p535
I85
sV \u0c0e
p536
I301
sV \u0c0f
p537
I586
sV \u0c05\u0c02
p538
I382
sV\u0c17\u0c41 
p539
I997
sV \u0c12
p540
I322
sV\u0c25\u0c3e
p541
I594
sV\u0c4d\u0c24\u0c3e
p542
I448
sV \u0c17
p543
I132
sV \u0c15
p544
I31
sV \u0c1a
p545
I74
sV\u0c4a\u0c26
p546
I749
sV\u0c32\u0c4b\u0c28
p547
I400
sV \u0c1f
p548
I891
sV \u0c1c
p549
I158
sV\u0c35\u0c48
p550
I809
sV\u0c02\u0c21\u0c32
p551
I948
sV\u0c4d 
p552
I44
sV\u0c30\u0c15
p553
I354
sV\u0c30\u0c1a
p554
I933
sV\u0c02\u0c21\u0c3f
p555
I340
sV\u0c3e\u0c15\u0c4d
p556
I753
sV\u0c16\u0c4d
p557
I517
sV\u0c30\u0c41 
p558
I222
sV\u0c3f\u0c02\u0c17
p559
I931
sV\u0c23\u0c3f
p560
I887
sV\u0c23\u0c3e
p561
I677
sV\u0c15\u0c41 
p562
I146
sV\u0c24\u0c3f 
p563
I281
sV\u0c3f\u0c28 
p564
I195
sV \u0c2d\u0c3e
p565
I469
sV\u0c02\u0c26\u0c41
p566
I433
sV\u0c2f\u0c3e\u0c28
p567
I572
sV\u0c4d\u200c
p568
I295
sV\u0c2b
I234
sV\u0c30\u0c39
p569
I999
sV\u0c30\u0c3e
p570
I49
sV\u0c30\u0c3f
p571
I58
sV\u0c02\u0c26\u0c4d
p572
I497
sV\u0c35\u0c40
p573
I512
sV\u0c06 
p574
I744
sV\u0c30\u0c23
p575
I430
sV\u0c30\u0c26
p576
I805
sV \u0c30\u0c46
p577
I916
sV\u0c30\u0c24
p578
I377
sV\u0c4d\u0c32\u0c4b
p579
I518
sV\u0c30\u0c2a
p580
I751
sV\u0c30\u0c41\u000a
p581
I147
sV\u0c30\u0c2e
p582
I284
sV\u0c4d\u0c32\u0c41
p583
I487
sV\u0c30\u0c2d
p584
I952
sV\u0c3f\u0c38\u0c4d
p585
I261
sV\u0c4d\u0c32\u0c3e
p586
I577
sV\u0c4d\u0c32\u0c3f
p587
I708
sV\u0c4b
I19
sV \u0c09\u0c2a
p588
I840
sV \u0c30\u0c3e
p589
I291
sV\u0c2a\u0c41\u0c30
p590
I808
sV\u0c26 
p591
I554
sV\u0c30\u0c40
p592
I343
sV\u0c30\u0c41
p593
I48
sV\u0c30\u0c46
p594
I465
sV\u0c30\u0c47
p595
I576
sV  \u0c15
p596
I658
sV\u0c4b\u0c30
p597
I730
sV\u0c30\u0c4b
p598
I388
sV\u0c30\u0c48
p599
I884
sV\u0c09\u0c02
p600
I216
sV\u0c02\u0c26\u0c3f
p601
I79
sV\u0c30\u0c4d
p602
I33
sV\u0c41\u0c35\u0c41
p603
I542
sV\u0c41\u0c02\u0c21
p604
I314
sV\u0c40 
p605
I169
sV\u0c41\u0c02\u0c26
p606
I268
sV\u0c09\u0c28
p607
I248
sV\u0c09\u0c2a
p608
I795
sV\u0c02\u0c21\u0c41
p609
I919
sV\u0c3e\u0c24 
p610
I859
sV\u0c26\u0c41 
p611
I960
sV\u0c02\u0c21\u0c4d
p612
I932
sV\u0c09\u0c24
p613
I700
sV\u0c30\u0c41\u0c32
p614
I507
sV\u0c06
I102
sV\u0c40\u0c15
p615
I725
sV\u0c38\u0c41 
p616
I816
sV\u0c41\u0c28\u0c41
p617
I789
sV\u0c1c\u0c40
p618
I778
sV\u0c16
I292
sV \u0c17\u0c3e
p619
I852
sV\u0c26\u0c3f 
p620
I173
sV\u0c1c\u0c4d
p621
I549
sV\u0c36\u0c3e
p622
I214
sV\u0c36\u0c3f
p623
I630
sV\u0c36\u0c02
p624
I886
sV\u0c07\u0c26\u0c3f
p625
I603
sV\u0c26
I14
sV \u0c15\u0c41
p626
I669
sV\u0c4b\u0c35
p627
I910
sV\u0c2a\u0c41 
p628
I672
sV\u0c02\u0c1f\u0c3e
p629
I651
sV\u0c36
I65
sV\u0c41\u0c02\u0c1f
p630
I853
sV\u0c15\u0c3f\u0c02
p631
I624
sV\u0c1f\u0c4d\u0c30
p632
I815
sV\u0c46
I42
sV\u0c32\u0c28\u0c41
p633
I346
sV \u0c09\u0c28
p634
I250
sV\u0c24\u0c4d\u0c38
p635
I802
sV\u0c2a\u0c3e\u0c32
p636
I589
sV\u0c3e\u0c02\u0c24
p637
I541
sV \u0c09\u0c24
p638
I741
sV\u0c4d\u0c25\u0c3e
p639
I729
sV\u0c1c\u0c30
p640
I520
sV \u0c17\u0c41
p641
I619
sV\u0c1c\u0c3e
p642
I475
sV\u0c1c\u0c3f
p643
I523
sV\u0c26\u0c47\u0c36
p644
I550
sV \u0c17\u0c4d
p645
I509
sV\u0c1f\u0c4d\u0c1f
p646
I299
sV\u0c36\u0c4d
p647
I347
sV\u0c38\u0c3e\u0c2f
p648
I909
sV\u0c41\u0c32 
p649
I372
sV\u000a\u0c08
p650
I423
sV \u0c09\u0c02
p651
I219
sV\u0c1c\u0c28
p652
I528
sV\u0c15\u0c4d\u0c15
p653
I265
sV\u0c41 \u0c28
p654
I413
sV\u0c41 \u0c2e
p655
I398
sV\u0c3e\u0c28\u0c3f
p656
I168
sV\u0c41 \u0c26
p657
I867
sV\u0c2f\u0c42
p658
I848
sV\u0c2f\u0c41
p659
I355
sV\u0c40\u0c2f
p660
I726
sV\u0c02\u0c15
p661
I545
sV\u0c41 \u0c38
p662
I271
sV\u0c02\u0c17
p663
I124
sV\u0c4d\u0c2f\u0c02
p664
I395
sV\u0c41 \u0c32
p665
I759
sV\u0c02 \u0c35
p666
I647
sV\u0c41 \u0c30
p667
I579
sV\u0c02\u0c1f
p668
I143
sV\u0c1f\u0c3e\u0c30
p669
I873
sV\u0c02\u0c1a
p670
I78
sV\u0c41 \u0c35
p671
I257
sV\u0c02\u0c24
p672
I145
sV\u0c15\u0c4d\u0c37
p673
I305
sV\u0c3f\u0c15 
p674
I403
sV\u0c02\u0c21
p675
I108
sV\u0c4d\u0c30 
p676
I780
sV\u0c02\u0c2c
p677
I706
sV\u0c30\u0c3e 
p678
I431
sV\u0c41 \u0c06
p679
I828
sV\u0c26\u0c02
p680
I905
sV\u0c02\u0c2a
p681
I399
sV\u0c41 \u0c05
p682
I311
sV\u0c41 \u0c1a
p683
I315
sV\u0c15\u0c4d\u0c24
p684
I754
sV\u0c09\u0c24\u0c4d
p685
I702
sV\u0c02\u0c32
p686
I140
sV\u0c15\u0c4a
p687
I275
sV\u0c15\u0c47
p688
I384
sV\u0c15\u0c41
p689
I73
sV\u0c41 \u0c17
p690
I797
sV\u0c15\u0c43
p691
I979
sV\u0c41 \u0c15
p692
I247
sV\u0c41
I4
sV\u0c15\u0c3f
p693
I94
sV\u0c15\u0c3e
p694
I103
sV\u0c20
I868
sV\u0c4b\u0c38
p695
I676
sV\u0c2f\u0c02
p696
I182
sV\u0c15\u0c33
p697
I984
sV\u0c15\u0c32
p698
I300
sV\u0c28\u0c40 
p699
I846
sV\u0c15\u0c28
p700
I563
sV\u0c09\u0c28\u0c4d
p701
I253
sV\u000a\u0c38
p702
I467
sV\u0c2f\u0c15
p703
I574
sV\u0c15\u0c21
p704
I937
sV\u0c2e\u0c47
p705
I691
sV\u0c4d\u0c2f\u0c3e
p706
I212
sV\u0c2f\u0c2e
p707
I694
sV\u0c15\u0c1f
p708
I904
sV\u0c28 
p709
I56
sV\u0c1f 
p710
I901
sV\u0c2f\u0c28
p711
I397
sV\u0c21\u0c4d 
p712
I823
sV\u0c2f\u0c24
p713
I994
sV\u0c39\u0c3f\u0c02
p714
I954
sV\u0c2f\u0c3f
p715
I133
sV\u0c2f\u0c3e
p716
I111
sV\u0c3e\u0c21\u0c41
p717
I189
sV\u0c28\u0c4d\u0c28
p718
I69
sV\u0c3f\u000a
p719
I57
sV\u000a\u0c35
p720
I488
sV\u0c3e\u0c28\u0c4d
p721
I283
sV\u0c32\u0c40
p722
I957
sV\u0c2f\u0c35
p723
I539
sV \u0c1a\u0c47
p724
I177
sV\u0c15\u0c02
p725
I462
sV\u0c2a\u0c42\u0c30
p726
I965
sV\u0c1f\u0c30\u0c4d
p727
I740
sV\u0c4d\u0c35\u0c3e
p728
I345
sV\u0c35\u0c4d
p729
I242
sV\u0c30\u0c02 
p730
I356
sV \u0c26\u0c47
p731
I812
sV\u0c35\u0c47
p732
I307
sV\u0c35\u0c46
p733
I504
sV\u0c35\u0c41
p734
I183
sV\u0c1c
I55
sV\u0c24\u0c47
p735
I748
sV\u0c3f\u0c26\u0c4d
p736
I601
sV\u0c41\u0c17\u0c3e
p737
I575
sV\u0c2c
I61
sV\u0c1a\u0c3f 
p738
I298
sV\u0c32 
p739
I98
sV\u0c28\u0c4d
p740
I38
sV\u0c28\u0c42
p741
I985
sV\u0c2a\u0c48
p742
I716
sV\u0c28\u0c40
p743
I337
sV\u0c28\u0c41
p744
I77
sV\u0c28\u0c47
p745
I232
sV\u0c36\u0c4d\u0c30
p746
I764
sV\u0c28\u0c3e
p747
I91
sV\u0c28\u0c3f
p748
I28
sV\u0c35\u0c1a
p749
I617
sV\u0c28\u0c32
p750
I774
sV\u0c02 \u0c38
p751
I899
sV\u0c28\u0c30
p752
I701
sV\u0c17\u0c30
p753
I745
sV\u0c4c
I442
sV\u0c28\u0c35
p754
I719
sV\u0c28\u0c2a
p755
I882
sV\u0c15\u0c42\u0c21
p756
I596
sV\u0c02 \u0c28
p757
I926
sV\u0c02 \u0c2a
p758
I610
sV\u0c28\u0c26
p759
I685
sV\u0c35\u0c02
p760
I378
sV\u0c41\u0c26\u0c4d
p761
I878
sV\u0c35\u0c3f
p762
I89
sV\u0c35\u0c3e
p763
I81
sV\u0c02 \u0c15
p764
I657
sV\u0c35\u0c38
p765
I341
sV\u0c02 \u0c1a
p766
I521
sV\u0c35\u0c30
p767
I228
sV\u0c42\u0c2a
p768
I989
sV\u0c35\u0c32
p769
I485
sV\u0c3f\u000a\u0c07
p770
I558
sV\u0c42\u0c30
p771
I302
sV\u0c35\u0c28
p772
I697
sV\u0c28\u0c02
p773
I325
sV\u0c35\u0c24
p774
I692
sV \u0c06\u0c30
p775
I734
sV\u0c2e\u0c41 
p776
I737
sV\u0c28\u0c3f\u0c15
p777
I170
sV\u0c32\u0c47\u0c26
p778
I920
sV\u0c07
I136
sV\u0c26\u0c32
p779
I827
sV\u0c1c\u0c41
p780
I675
sV\u0c3f\u0c1f
p781
I836
sV\u0c2e\u0c48\u0c28
p782
I415
sV\u0c17
I21
sV\u0c35\u0c4d\u0c2f
p783
I358
sV \u0c26\u0c3e
p784
I861
sV\u0c27
I87
sV\u000a\u0c17
p785
I844
sV\u0c2e\u0c3e\u0c30
p786
I484
sV\u0c21\u0c3e 
p787
I472
sV\u0c37
I90
sV\u0c2e\u0c3e\u0c28
p788
I645
sV\u0c02 \u0c05
p789
I736
sV\u0c35\u0c38\u0c4d
p790
I639
sV\u0c3f \u0c15
p791
I288
sV\u0c3f \u0c17
p792
I761
sV\u0c47
I23
sV\u0c42\u0c21\u0c3e
p793
I663
sV\u0c38\u0c4d 
p794
I379
sV\u0c3f \u0c1a
p795
I336
sV\u0c3f \u0c05
p796
I244
sV\u0c3f \u0c06
p797
I652
sV\u0c4d\u0c15\u0c41
p798
I855
sV\u0c2a\u0c32
p799
I693
sV\u0c2a\u0c30\u0c3f
p800
I612
sV\u0c05
I39
sV \u0c26\u0c4d
p801
I620
sV\u0c3f \u0c09
p802
I611
sV\u0c1a\u0c47\u0c38
p803
I296
sV\u0c3f \u0c35
p804
I166
sV\u0c3f \u0c30
p805
I602
sV\u0c3e \u0c1c
p806
I972
sV\u0c3f\u0c30\u0c4d
p807
I492
sV\u0c28\u0c41\u0c02
p808
I371
sV\u0c3f \u0c38
p809
I218
sV\u0c46\u0c02\u0c21
p810
I911
sV\u0c3f \u0c24
p811
I428
sV\u0c48\u0c28
p812
I202
sV\u0c2f\u0c35\u0c38
p813
I864
sV\u0c1a\u0c47\u0c2f
p814
I750
sV\u0c3f \u0c2e
p815
I350
sV\u0c3f \u0c28
p816
I351
sV\u0c3f \u0c2a
p817
I180
sV\u0c4b 
p818
I35
sV\u0c35\u0c3f\u0c26
p819
I839
sV \u0c38\u0c02
p820
I199
sV\u0c2e\u0c02
p821
I230
sV\u000a
I25
sV\u0c05\u0c02\u0c26
p822
I822
sV \u0c2a\u0c4d
p823
I96
sV\u0c3e \u0c15
p824
I449
sV\u0c12
I270
sV\u0c21\u0c35
p825
I787
sV \u0c2a\u0c4b
p826
I530
sV\u0c30\u0c3f\u0c17
p827
I738
sV\u0c3e 
p828
I37
sV \u0c2a\u0c47
p829
I791
sV \u0c08 
p830
I381
sV \u0c2a\u0c41
p831
I631
sV\u0c21\u0c3f
p832
I112
sV\u0c21\u0c3e
p833
I198
sV\u0c2e\u0c28
p834
I571
sV\u0c21\u0c02
p835
I525
sV\u0c41\u0c21\u0c41
p836
I380
sV \u0c38\u0c2e
p837
I420
sV\u0c3e\u0c32\u0c32
p838
I644
sV\u0c21 
p839
I818
sV\u0c32
I8
sV \u0c38\u0c3f
p840
I590
sV \u0c38\u0c3e
p841
I404
sV\u0c2e\u0c3e
p842
I120
sV\u0c2e\u0c3f
p843
I201
sV\u0c2e\u0c30
p844
I551
sV \u0c38\u0c30
p845
I625
sV\u0c2e\u0c48
p846
I360
sV\u0c2e\u0c4a
p847
I493
sV\u0c42
I66
sV\u0c2e\u0c4d
p848
I386
sV \u0c38\u0c4d
p849
I255
sV\u0c1a\u0c3e\u0c32
p850
I977
sV\u0c2e\u0c40
p851
I348
sV\u0c2e\u0c41
p852
I151
sV\u0c2e\u0c42
p853
I782
sV\u0c4d\u0c1a\u0c3f
p854
I599
sV\u0c24 
p855
I193
sV\u0c42\u0c21
p856
I408
sV\u0c4d\u0c28\u0c3e
p857
I184
sV\u0c4d\u0c28\u0c3f
p858
I240
sV\u0c3e \u0c2e
p859
I770
sV\u0c07\u0c02
p860
I616
sV\u0c3e\u0c32\u0c4d
p861
I636
sV\u0c2a\u0c47\u0c30
p862
I921
sV\u0c3e\u0c32\u0c41
p863
I204
sV\u0c2a\u0c3e\u0c1f
p864
I981
sV\u0c21\u0c41
p865
I86
sV \u0c2a\u0c3e
p866
I278
sV\u0c21\u0c47
p867
I735
sV\u0c21\u0c4d
p868
I246
sV \u0c2a\u0c30
p869
I451
sV\u0c07\u0c26
p870
I511
sV\u0c15 \u0c2a
p871
I635
sV\u0c28 \u0c35
p872
I662
sV\u0c3e\u0c32\u0c3f
p873
I906
sV\u0c21\u0c02 
p874
I800
sV\u0c1a\u0c4d
p875
I317
sV\u0c41\u0c02
p876
I110
sV\u0c24\u0c4d\u0c24
p877
I279
sV\u0c1f\u0c4d\u0c32
p878
I661
sV\u0c27\u0c3f
p879
I364
sV\u0c27\u0c3e
p880
I411
sV\u0c1a\u0c46
p881
I366
sV\u0c1a\u0c47
p882
I128
sV\u0c1a\u0c41
p883
I376
sV\u0c4d\u0c2f\u0c15
p884
I879
sV\u0c24\u0c4d\u0c2f
p885
I532
sV\u0c24\u0c4d\u0c30
p886
I192
sV\u0c35\u0c30\u0c4d
p887
I743
sV\u0c41\u0c15
p888
I153
sV\u0c24\u0c4d\u0c35
p889
I709
sV\u0c41\u0c17
p890
I196
sV\u0c3f\u0c02\u0c26
p891
I172
sV\u000a\u0c05
p892
I312
sV\u000a\u0c06
p893
I587
sV\u000a\u0c07
p894
I389
sV \u0c28\u0c41
p895
I385
sV\u0c41\u0c1f
p896
I777
sV\u0c46\u0c15
p897
I875
sV\u0c41\u0c21
p898
I236
sV\u0c15\u0c32\u0c3f
p899
I863
sV\u0c3f\u0c02\u0c1a
p900
I95
sV\u0c41\u0c24
p901
I171
sV\u0c41\u0c26
p902
I491
sV\u0c15\u0c3e\u0c28
p903
I991
sV\u0c41\u0c28
p904
I125
sV\u0c41\u0c2a
p905
I615
sV\u0c2d
I100
sV\u0c1a\u0c3e\u0c21
p906
I747
sV\u0c26\u0c3f\u000a
p907
I106
sV\u0c41\u0c2e
p908
I585
sV\u0c15\u0c3e\u0c30
p909
I333
sV\u0c41\u0c30
p910
I239
sV\u0c15\u0c3e\u0c32
p911
I450
sV\u0c41\u0c32
p912
I72
sV\u0c41\u0c35
p913
I211
sV\u000a\u0c2a
p914
I387
sV\u0c02\u0c1f\u0c41
p915
I838
sV\u000a\u0c24
p916
I763
sV\u0c41\u0c38
p917
I627
sV\u000a\u0c26
p918
I776
sV\u0c15\u0c4a\u0c28
p919
I710
sV\u0c3e\u0c36
p920
I670
sV\u0c38\u0c4d\u0c24
p921
I130
sV\u0c38\u0c4d\u0c25
p922
I375
sV\u0c4d
I1
sV\u0c2a\u0c47
p923
I522
sV\u0c17\u0c3e 
p924
I107
sV\u0c38\u0c4d\u0c35
p925
I607
sV\u0c4d\u0c2f\u0c41
p926
I872
sV\u0c2a 
p927
I650
sV\u0c32\u0c4d\u0c32
p928
I213
sV\u0c1a\u0c4d\u0c1a
p929
I373
sV\u0c1a\u0c3e\u0c30
p930
I421
sV\u0c2e\u0c4a\u0c26
p931
I862
sV\u0c28\u0c3f\u0c30
p932
I489
sV\u0c47\u0c30\u0c41
p933
I638
sV\u0c30\u0c3f 
p934
I258
sV\u0c41\u0c28\u0c3f
p935
I641
sV\u0c1a\u0c3e
p936
I178
sV\u0c1a\u0c3f
p937
I104
sV\u0c30\u0c4d 
p938
I383
sV\u0c30\u0c4d\u0c2a
p939
I775
sV\u0c47 \u0c2a
p940
I928
sV\u0c30\u0c40 
p941
I949
sV\u0c38\u0c4d\u0c15
p942
I935
sV\u0c27\u0c4d
p943
I464
sV \u0c36\u0c3e
p944
I961
sV\u0c41\u0c17\u0c41
p945
I417
sV\u0c28\u0c17
p946
I971
s.